Archive member included to satisfy reference by file (symbol)

/usr/lib/gcc/arm-none-eabi/4.8/../../../arm-none-eabi/lib/armv7-m/libc.a(lib_a-memcmp.o)
                              ../../src/keyboard/report_protocol.o (memcmp)
/usr/lib/gcc/arm-none-eabi/4.8/../../../arm-none-eabi/lib/armv7-m/libc.a(lib_a-memcpy.o)
                              ../../src/ccid/CcidLocalAccess.o (memcpy)
/usr/lib/gcc/arm-none-eabi/4.8/../../../arm-none-eabi/lib/armv7-m/libc.a(lib_a-memmove.o)
                              ../../src/crypt/sha1/sha1.o (memmove)
/usr/lib/gcc/arm-none-eabi/4.8/../../../arm-none-eabi/lib/armv7-m/libc.a(lib_a-memset.o)
                              ../../src/ccid/CcidLocalAccess.o (memset)
/usr/lib/gcc/arm-none-eabi/4.8/../../../arm-none-eabi/lib/armv7-m/libc.a(lib_a-rand.o)
                              ../../src/pwd-safe/FlashStorage.o (rand)
/usr/lib/gcc/arm-none-eabi/4.8/../../../arm-none-eabi/lib/armv7-m/libc.a(lib_a-setjmp.o)
                              ../../src/main.o (setjmp)
/usr/lib/gcc/arm-none-eabi/4.8/../../../arm-none-eabi/lib/armv7-m/libc.a(lib_a-strcpy.o)
                              ../../src/ccid/CcidLocalAccess.o (strcpy)
/usr/lib/gcc/arm-none-eabi/4.8/../../../arm-none-eabi/lib/armv7-m/libc.a(lib_a-strlen.o)
                              ../../src/ccid/CcidLocalAccess.o (strlen)
/usr/lib/gcc/arm-none-eabi/4.8/../../../arm-none-eabi/lib/armv7-m/libc.a(lib_a-impure.o)
                              /usr/lib/gcc/arm-none-eabi/4.8/../../../arm-none-eabi/lib/armv7-m/libc.a(lib_a-rand.o) (_impure_ptr)
/usr/lib/gcc/arm-none-eabi/4.8/armv7-m/libgcc.a(_aeabi_uldivmod.o)
                              ../../src/hotp/hotp.o (__aeabi_uldivmod)
/usr/lib/gcc/arm-none-eabi/4.8/armv7-m/libgcc.a(bpabi.o)
                              /usr/lib/gcc/arm-none-eabi/4.8/armv7-m/libgcc.a(_aeabi_uldivmod.o) (__gnu_uldivmod_helper)
/usr/lib/gcc/arm-none-eabi/4.8/armv7-m/libgcc.a(_dvmd_tls.o)
                              /usr/lib/gcc/arm-none-eabi/4.8/armv7-m/libgcc.a(_aeabi_uldivmod.o) (__aeabi_ldiv0)
/usr/lib/gcc/arm-none-eabi/4.8/armv7-m/libgcc.a(_divdi3.o)
                              /usr/lib/gcc/arm-none-eabi/4.8/armv7-m/libgcc.a(bpabi.o) (__divdi3)
/usr/lib/gcc/arm-none-eabi/4.8/armv7-m/libgcc.a(_udivdi3.o)
                              /usr/lib/gcc/arm-none-eabi/4.8/armv7-m/libgcc.a(bpabi.o) (__udivdi3)

Allocating common symbols
Common symbol       size              file

SaveRState          0x2               ../../src/stm/Libraries/STM32_USB-FS-Device_Driver/src/usb_int.o
UsbIntMessageBuffer
                    0x4               ../../src/ccid/Ccid_usb.o
InstructionByte     0x1               ../../src/ccid/Crd.o
HID_SetReport_Value
                    0x40              ../../src/ccid/CCIDHID_USB/CCIDHID_usb_prop.o
CBW                 0x20              ../../src/usb/usb_bot.o
CrdFlags            0x1               ../../src/ccid/Crd.o
CrdBufferSize       0x4               ../../src/ccid/Crd.o
temp_password       0x19              ../../src/keyboard/report_protocol.o
UsbMessageFlags     0x1               ../../src/ccid/Ccid_usb.o
SaveState           0x2               ../../src/stm/Libraries/STM32_USB-FS-Device_Driver/src/usb_init.o
ProtocolValue       0x4               ../../src/ccid/CCIDHID_USB/CCIDHID_usb_prop.o
current_time        0x8               ../../src/main.o
SC_ATR_Table        0x28              ../../src/ccid/smartcard/smartcard.o
wIstr               0x2               ../../src/usb/usb_istr.o
EraseStoreData_au8  0x100             ../../src/pwd-safe/FlashStorage.o
pProperty           0x4               ../../src/stm/Libraries/STM32_USB-FS-Device_Driver/src/usb_init.o
UsbMessageBuffer    0x160             ../../src/ccid/Ccid_usb.o
EPindex             0x1               ../../src/stm/Libraries/STM32_USB-FS-Device_Driver/src/usb_init.o
message             0x40              ../../src/ccid/CCIDHID_USB/CCIDHID_usb_prop.o
Data_Len            0x2               ../../src/usb/usb_bot.o
MASS_Device_Info    0x1c              ../../src/sd-disk/sd-usb/usb_prop.o
Bot_State           0x1               ../../src/usb/usb_bot.o
SCSI_LBA            0x4               ../../src/usb/usb_bot.o
SaveTState          0x2               ../../src/stm/Libraries/STM32_USB-FS-Device_Driver/src/usb_int.o
Device_Info         0x4               ../../src/stm/Libraries/STM32_USB-FS-Device_Driver/src/usb_init.o
AbortSequenceNumber
                    0x1               ../../src/ccid/Ccid_usb.o
jmpRestartUSB       0x5c              ../../src/main.o
StickConfiguration_st
                    0x1c              ../../src/pwd-safe/FlashStorage.o
pUser_Standard_Requests
                    0x4               ../../src/stm/Libraries/STM32_USB-FS-Device_Driver/src/usb_init.o
BulkStatus          0x1               ../../src/ccid/Ccid_usb.o
CSW                 0x10              ../../src/usb/usb_bot.o
SCSI_BlkLen         0x4               ../../src/usb/usb_bot.o
StatusInfo          0x2               ../../src/stm/Libraries/STM32_USB-FS-Device_Driver/src/usb_core.o
pInformation        0x4               ../../src/stm/Libraries/STM32_USB-FS-Device_Driver/src/usb_init.o
CCID_Device_Info    0x1c              ../../src/ccid/CCIDHID_USB/CCIDHID_usb_prop.o
ResumeS             0x2               ../../src/usb/usb_pwr.o
Bulk_Data_Buff      0x40              ../../src/usb/usb_bot.o
page_buffer         0x3e8             ../../src/hotp/hotp.o
ProcedureByte       0x1               ../../src/ccid/Crd.o
temp_user_password  0x19              ../../src/keyboard/report_protocol.o
SC_A2R              0x2f              ../../src/ccid/smartcard/smartcard.o
pCrdBuffer          0x4               ../../src/ccid/Crd.o
SC_Responce         0x16              ../../src/ccid/smartcard/smartcard.o
CrdNbData           0x4               ../../src/ccid/Crd.o
HID_GetReport_Value
                    0x40              ../../src/ccid/CCIDHID_USB/CCIDHID_usb_prop.o
HID_GetReport_Value_tmp
                    0x40              ../../src/ccid/CCIDHID_USB/CCIDHID_usb_prop.o
HID_SetReport_Value_tmp
                    0x40              ../../src/ccid/CCIDHID_USB/CCIDHID_usb_prop.o
wInterrupt_Mask     0x2               ../../src/stm/Libraries/STM32_USB-FS-Device_Driver/src/usb_init.o
PWS_BufferSlot_st   0x40              ../../src/pwd-safe/password_safe.o

Memory Configuration

Name             Origin             Length             Attributes
RAM              0x0000000020000000 0x0000000000005000 xrw
FLASH            0x0000000008000000 0x0000000000020000 xr
FLASHB1          0x0000000000000000 0x0000000000000000 xr
EXTMEMB0         0x0000000000000000 0x0000000000000000 xr
EXTMEMB1         0x0000000000000000 0x0000000000000000 xr
EXTMEMB2         0x0000000000000000 0x0000000000000000 xr
EXTMEMB3         0x0000000000000000 0x0000000000000000 xr
*default*        0x0000000000000000 0xffffffffffffffff

Linker script and memory map

LOAD ../../src/main.o
LOAD ../../src/hw_config.o
LOAD ../../src/test_code.o
LOAD ../../src/tools.o
LOAD ../../src/utils/memory_ops.o
LOAD ../../src/ccid/Ccid_usb.o
LOAD ../../src/ccid/Ifd_protocol.o
LOAD ../../src/ccid/Crd.o
LOAD ../../src/ccid/Ifd_ccid.o
LOAD ../../src/ccid/CcidLocalAccess.o
LOAD ../../src/ccid/smartcard/smartcard.o
LOAD ../../src/ccid/CCIDHID_USB/CCIDHID_usb_prop.o
LOAD ../../src/ccid/CCIDHID_USB/CCIDHID_usb_desc.o
LOAD ../../src/sd-disk/sd-usb/usb_desc.o
LOAD ../../src/sd-disk/sd-usb/usb_prop.o
LOAD ../../src/stm/stm32f10x_systick.o
LOAD ../../src/stm/stm32f10x_it.o
LOAD ../../src/stm/Libraries/CMSIS/Core/CM3/core_cm3.o
LOAD ../../src/stm/Libraries/CMSIS/Core/CM3/system_stm32f10x.o
LOAD ../../src/stm/Libraries/CMSIS/Core/CM3/startup/gcc/startup_stm32f10x_hd.o
LOAD ../../src/stm/Libraries/STM32F10x_StdPeriph_Driver/src/misc.o
LOAD ../../src/stm/Libraries/STM32F10x_StdPeriph_Driver/src/stm32f10x_adc.o
LOAD ../../src/stm/Libraries/STM32F10x_StdPeriph_Driver/src/stm32f10x_bkp.o
LOAD ../../src/stm/Libraries/STM32F10x_StdPeriph_Driver/src/stm32f10x_can.o
LOAD ../../src/stm/Libraries/STM32F10x_StdPeriph_Driver/src/stm32f10x_crc.o
LOAD ../../src/stm/Libraries/STM32F10x_StdPeriph_Driver/src/stm32f10x_dac.o
LOAD ../../src/stm/Libraries/STM32F10x_StdPeriph_Driver/src/stm32f10x_dbgmcu.o
LOAD ../../src/stm/Libraries/STM32F10x_StdPeriph_Driver/src/stm32f10x_dma.o
LOAD ../../src/stm/Libraries/STM32F10x_StdPeriph_Driver/src/stm32f10x_exti.o
LOAD ../../src/stm/Libraries/STM32F10x_StdPeriph_Driver/src/stm32f10x_flash.o
LOAD ../../src/stm/Libraries/STM32F10x_StdPeriph_Driver/src/stm32f10x_fsmc.o
LOAD ../../src/stm/Libraries/STM32F10x_StdPeriph_Driver/src/stm32f10x_gpio.o
LOAD ../../src/stm/Libraries/STM32F10x_StdPeriph_Driver/src/stm32f10x_i2c.o
LOAD ../../src/stm/Libraries/STM32F10x_StdPeriph_Driver/src/stm32f10x_iwdg.o
LOAD ../../src/stm/Libraries/STM32F10x_StdPeriph_Driver/src/stm32f10x_pwr.o
LOAD ../../src/stm/Libraries/STM32F10x_StdPeriph_Driver/src/stm32f10x_rcc.o
LOAD ../../src/stm/Libraries/STM32F10x_StdPeriph_Driver/src/stm32f10x_rtc.o
LOAD ../../src/stm/Libraries/STM32F10x_StdPeriph_Driver/src/stm32f10x_sdio.o
LOAD ../../src/stm/Libraries/STM32F10x_StdPeriph_Driver/src/stm32f10x_spi.o
LOAD ../../src/stm/Libraries/STM32F10x_StdPeriph_Driver/src/stm32f10x_tim.o
LOAD ../../src/stm/Libraries/STM32F10x_StdPeriph_Driver/src/stm32f10x_usart.o
LOAD ../../src/stm/Libraries/STM32F10x_StdPeriph_Driver/src/stm32f10x_wwdg.o
LOAD ../../src/stm/Libraries/STM32_USB-FS-Device_Driver/src/usb_core.o
LOAD ../../src/stm/Libraries/STM32_USB-FS-Device_Driver/src/usb_init.o
LOAD ../../src/stm/Libraries/STM32_USB-FS-Device_Driver/src/usb_int.o
LOAD ../../src/stm/Libraries/STM32_USB-FS-Device_Driver/src/usb_mem.o
LOAD ../../src/stm/Libraries/STM32_USB-FS-Device_Driver/src/usb_regs.o
LOAD ../../src/crypt/aes/aes.o
LOAD ../../src/crypt/sha1/sha1.o
LOAD ../../src/crypt/sha1/hmac-sha1.o
LOAD ../../src/hotp/hotp.o
LOAD ../../src/keyboard/keyboard.o
LOAD ../../src/keyboard/report_protocol.o
LOAD ../../src/usb/usb_endp.o
LOAD ../../src/usb/usb_bot.o
LOAD ../../src/usb/usb_pwr.o
LOAD ../../src/usb/usb_istr.o
LOAD ../../src/pwd-safe/FlashStorage.o
LOAD ../../src/pwd-safe/HandleAesStorageKey.o
LOAD ../../src/pwd-safe/password_safe.o
LOAD /usr/lib/gcc/arm-none-eabi/4.8/../../../arm-none-eabi/lib/armv7-m/libc.a
LOAD /usr/lib/gcc/arm-none-eabi/4.8/../../../arm-none-eabi/lib/armv7-m/libm.a
LOAD /usr/lib/gcc/arm-none-eabi/4.8/../../../arm-none-eabi/lib/armv7-m/libc.a
LOAD /usr/lib/gcc/arm-none-eabi/4.8/armv7-m/libgcc.a
LOAD /usr/lib/gcc/arm-none-eabi/4.8/../../../arm-none-eabi/lib/armv7-m/librdimon.a
START GROUP
LOAD /usr/lib/gcc/arm-none-eabi/4.8/armv7-m/libgcc.a
LOAD /usr/lib/gcc/arm-none-eabi/4.8/../../../arm-none-eabi/lib/armv7-m/libg.a
LOAD /usr/lib/gcc/arm-none-eabi/4.8/../../../arm-none-eabi/lib/armv7-m/libc.a
END GROUP
                0x0000000000000400                __Stack_Size = 0x400
                0x0000000000000400                PROVIDE (_Stack_Size, __Stack_Size)
                0x0000000020004c00                __Stack_Init = (_estack - __Stack_Size)
                0x0000000020004c00                PROVIDE (_Stack_Init, __Stack_Init)
                0x0000000000000100                _Minimum_Stack_Size = 0x100
                0x0000000000000000                PROVIDE (Undefined_Handler, 0x0)
                0x0000000000000000                PROVIDE (SWI_Handler, 0x0)
                0x0000000000000000                PROVIDE (IRQ_Handler, 0x0)
                0x0000000000000000                PROVIDE (Prefetch_Handler, 0x0)
                0x0000000000000000                PROVIDE (Abort_Handler, 0x0)
                0x0000000000000000                PROVIDE (FIQ_Handler, 0x0)
                0x0000000000000000                PROVIDE (NMIException, 0x0)
                0x0000000000000000                PROVIDE (HardFaultException, 0x0)
                0x0000000000000000                PROVIDE (MemManageException, 0x0)
                0x0000000000000000                PROVIDE (BusFaultException, 0x0)
                0x0000000000000000                PROVIDE (UsageFaultException, 0x0)
                0x0000000000000000                PROVIDE (SVCHandler, 0x0)
                0x0000000000000000                PROVIDE (DebugMonitor, 0x0)
                0x0000000000000000                PROVIDE (PendSVC, 0x0)
                0x0000000000000000                PROVIDE (SysTickHandler, 0x0)
                0x0000000000000000                PROVIDE (WWDG_IRQHandler, 0x0)
                0x0000000000000000                PROVIDE (PVD_IRQHandler, 0x0)
                0x0000000000000000                PROVIDE (TAMPER_IRQHandler, 0x0)
                0x0000000000000000                PROVIDE (RTC_IRQHandler, 0x0)
                0x0000000000000000                PROVIDE (FLASH_IRQHandler, 0x0)
                0x0000000000000000                PROVIDE (RCC_IRQHandler, 0x0)
                0x0000000000000000                PROVIDE (EXTI0_IRQHandler, 0x0)
                0x0000000000000000                PROVIDE (EXTI1_IRQHandler, 0x0)
                0x0000000000000000                PROVIDE (EXTI2_IRQHandler, 0x0)
                0x0000000000000000                PROVIDE (EXTI3_IRQHandler, 0x0)
                0x0000000000000000                PROVIDE (EXTI4_IRQHandler, 0x0)
                0x0000000000000000                PROVIDE (DMAChannel1_IRQHandler, 0x0)
                0x0000000000000000                PROVIDE (DMAChannel2_IRQHandler, 0x0)
                0x0000000000000000                PROVIDE (DMAChannel3_IRQHandler, 0x0)
                0x0000000000000000                PROVIDE (DMAChannel4_IRQHandler, 0x0)
                0x0000000000000000                PROVIDE (DMAChannel5_IRQHandler, 0x0)
                0x0000000000000000                PROVIDE (DMAChannel6_IRQHandler, 0x0)
                0x0000000000000000                PROVIDE (DMAChannel7_IRQHandler, 0x0)
                0x0000000000000000                PROVIDE (ADC_IRQHandler, 0x0)
                0x0000000000000000                PROVIDE (USB_HP_CAN_TX_IRQHandler, 0x0)
                0x0000000000000000                PROVIDE (USB_LP_CAN_RX0_IRQHandler, 0x0)
                0x0000000000000000                PROVIDE (CAN_RX1_IRQHandler, 0x0)
                0x0000000000000000                PROVIDE (CAN_SCE_IRQHandler, 0x0)
                0x0000000000000000                PROVIDE (EXTI9_5_IRQHandler, 0x0)
                0x0000000000000000                PROVIDE (TIM1_BRK_IRQHandler, 0x0)
                0x0000000000000000                PROVIDE (TIM1_UP_IRQHandler, 0x0)
                0x0000000000000000                PROVIDE (TIM1_TRG_COM_IRQHandler, 0x0)
                0x0000000000000000                PROVIDE (TIM1_CC_IRQHandler, 0x0)
                0x0000000000000000                PROVIDE (TIM2_IRQHandler, 0x0)
                0x0000000000000000                PROVIDE (TIM3_IRQHandler, 0x0)
                0x0000000000000000                PROVIDE (TIM4_IRQHandler, 0x0)
                0x0000000000000000                PROVIDE (I2C1_EV_IRQHandler, 0x0)
                0x0000000000000000                PROVIDE (I2C1_ER_IRQHandler, 0x0)
                0x0000000000000000                PROVIDE (I2C2_EV_IRQHandler, 0x0)
                0x0000000000000000                PROVIDE (I2C2_ER_IRQHandler, 0x0)
                0x0000000000000000                PROVIDE (SPI1_IRQHandler, 0x0)
                0x0000000000000000                PROVIDE (SPI2_IRQHandler, 0x0)
                0x0000000000000000                PROVIDE (USART1_IRQHandler, 0x0)
                0x0000000000000000                PROVIDE (USART2_IRQHandler, 0x0)
                0x0000000000000000                PROVIDE (USART3_IRQHandler, 0x0)
                0x0000000000000000                PROVIDE (EXTI15_10_IRQHandler, 0x0)
                0x0000000000000000                PROVIDE (RTCAlarm_IRQHandler, 0x0)
                0x0000000000000000                PROVIDE (USBWakeUp_IRQHandler, 0x0)
                0x0000000042000000                PERIPH_BB_BASE = 0x42000000
                0x0000000022000000                SRAM_BB_BASE = 0x22000000
                0x0000000020000000                SRAM_BASE = 0x20000000
                0x0000000040000000                PERIPH_BASE = 0x40000000
                0x0000000040022000                PROVIDE (FLASH_BASE, 0x40022000)
                0x000000001ffff800                PROVIDE (OB_BASE, 0x1ffff800)
                0x0000000040000000                APB1PERIPH_BASE = PERIPH_BASE
                0x0000000040010000                APB2PERIPH_BASE = (PERIPH_BASE + 0x10000)
                0x0000000040020000                AHBPERIPH_BASE = (PERIPH_BASE + 0x20000)
                0x0000000040000000                PROVIDE (TIM2, (APB1PERIPH_BASE + 0x0))
                0x0000000040000400                PROVIDE (TIM3, (APB1PERIPH_BASE + 0x400))
                0x0000000040000800                PROVIDE (TIM4, (APB1PERIPH_BASE + 0x800))
                0x0000000040002800                PROVIDE (RTC, (APB1PERIPH_BASE + 0x2800))
                0x0000000040002c00                PROVIDE (WWDG, (APB1PERIPH_BASE + 0x2c00))
                0x0000000040003000                PROVIDE (IWDG, (APB1PERIPH_BASE + 0x3000))
                0x0000000040003800                PROVIDE (SPI2, (APB1PERIPH_BASE + 0x3800))
                0x0000000040004400                PROVIDE (USART2, (APB1PERIPH_BASE + 0x4400))
                0x0000000040004800                PROVIDE (USART3, (APB1PERIPH_BASE + 0x4800))
                0x0000000040005400                PROVIDE (I2C1, (APB1PERIPH_BASE + 0x5400))
                0x0000000040005800                PROVIDE (I2C2, (APB1PERIPH_BASE + 0x5800))
                0x0000000040006400                PROVIDE (CAN, (APB1PERIPH_BASE + 0x6400))
                0x0000000040006c00                PROVIDE (BKP, (APB1PERIPH_BASE + 0x6c00))
                0x0000000040007000                PROVIDE (PWR, (APB1PERIPH_BASE + 0x7000))
                0x0000000040010000                PROVIDE (AFIO, (APB2PERIPH_BASE + 0x0))
                0x0000000040010400                PROVIDE (EXTI, (APB2PERIPH_BASE + 0x400))
                0x0000000040010800                PROVIDE (GPIOA, (APB2PERIPH_BASE + 0x800))
                0x0000000040010c00                PROVIDE (GPIOB, (APB2PERIPH_BASE + 0xc00))
                0x0000000040011000                PROVIDE (GPIOC, (APB2PERIPH_BASE + 0x1000))
                0x0000000040011400                PROVIDE (GPIOD, (APB2PERIPH_BASE + 0x1400))
                0x0000000040011800                PROVIDE (GPIOE, (APB2PERIPH_BASE + 0x1800))
                0x0000000040012400                PROVIDE (ADC1, (APB2PERIPH_BASE + 0x2400))
                0x0000000040012800                PROVIDE (ADC2, (APB2PERIPH_BASE + 0x2800))
                0x0000000040012c00                PROVIDE (TIM1, (APB2PERIPH_BASE + 0x2c00))
                0x0000000040013000                PROVIDE (SPI1, (APB2PERIPH_BASE + 0x3000))
                0x0000000040013800                PROVIDE (USART1, (APB2PERIPH_BASE + 0x3800))
                0x0000000040020000                PROVIDE (DMA, (AHBPERIPH_BASE + 0x0))
                0x0000000040020008                PROVIDE (DMA_Channel1, (AHBPERIPH_BASE + 0x8))
                0x000000004002001c                PROVIDE (DMA_Channel2, (AHBPERIPH_BASE + 0x1c))
                0x0000000040020030                PROVIDE (DMA_Channel3, (AHBPERIPH_BASE + 0x30))
                0x0000000040020044                PROVIDE (DMA_Channel4, (AHBPERIPH_BASE + 0x44))
                0x0000000040020058                PROVIDE (DMA_Channel5, (AHBPERIPH_BASE + 0x58))
                0x000000004002006c                PROVIDE (DMA_Channel6, (AHBPERIPH_BASE + 0x6c))
                0x0000000040020080                PROVIDE (DMA_Channel7, (AHBPERIPH_BASE + 0x80))
                0x0000000040021000                PROVIDE (RCC, (AHBPERIPH_BASE + 0x1000))
                0x00000000e000e000                SCS_BASE = 0xe000e000
                0x00000000e000e010                PROVIDE (SysTick, (SCS_BASE + 0x10))
                0x00000000e000e100                PROVIDE (NVIC, (SCS_BASE + 0x100))
                0x00000000e000ed00                PROVIDE (SCB, (SCS_BASE + 0xd00))
                0x0000000020005000                _estack = 0x20005000

.isr_vector     0x0000000008000000      0x1e4
                0x0000000008000000                . = ALIGN (0x4)
 *(.isr_vector)
 .isr_vector    0x0000000008000000      0x1e4 ../../src/stm/Libraries/CMSIS/Core/CM3/startup/gcc/startup_stm32f10x_hd.o
                0x0000000008000000                g_pfnVectors
                0x00000000080001e4                . = ALIGN (0x4)

.ARM.extab      0x00000000080001e4        0x0
 .ARM.extab     0x00000000080001e4        0x0 /usr/lib/gcc/arm-none-eabi/4.8/armv7-m/libgcc.a(_divdi3.o)
 .ARM.extab     0x00000000080001e4        0x0 /usr/lib/gcc/arm-none-eabi/4.8/armv7-m/libgcc.a(_udivdi3.o)

.ARM.exidx      0x00000000080001e4        0x8
 .ARM.exidx     0x00000000080001e4        0x8 /usr/lib/gcc/arm-none-eabi/4.8/armv7-m/libgcc.a(_divdi3.o)
 .ARM.exidx     0x00000000080001ec        0x0 /usr/lib/gcc/arm-none-eabi/4.8/armv7-m/libgcc.a(_udivdi3.o)
                                          0x8 (size before relaxing)

.flashtext      0x00000000080001ec        0x0
                0x00000000080001ec                . = ALIGN (0x4)
 *(.flashtext)
                0x00000000080001ec                . = ALIGN (0x4)

.text           0x00000000080001f0     0xce34
                0x00000000080001f0                . = ALIGN (0x4)
 *(.text)
 .text          0x00000000080001f0       0xb0 ../../src/main.o
                0x0000000008000250                test2
                0x0000000008000270                Test1
 .text          0x00000000080002a0      0x3b4 ../../src/hw_config.o
                0x00000000080002a0                DisableFirmwareDownloadPort
                0x00000000080002d0                DisableSmartcardLED
                0x00000000080002d4                EnableSmartcardLED
                0x0000000008000304                EnableOATHLED
                0x0000000008000334                EnableButton
                0x0000000008000364                EnableTimer2
                0x00000000080003c8                ReadButton
                0x00000000080003d4                SwitchSmartcardLED
                0x00000000080003ec                SwitchOATHLED
                0x0000000008000404                StartBlinkingOATHLED
                0x0000000008000414                Set_USBClock
                0x000000000800042c                Enter_LowPowerMode
                0x0000000008000438                Leave_LowPowerMode
                0x0000000008000458                USB_Interrupts_Config
                0x00000000080004b4                USB_Cable_Config
                0x00000000080004d0                HexToAscii
                0x00000000080004dc                Get_SerialNum
                0x00000000080005d8                RCC_Config
                0x00000000080005dc                MAL_Config
                0x00000000080005e8                USB_Disconnect_Config
                0x0000000008000620                Set_System
 .text          0x0000000008000654        0x0 ../../src/test_code.o
 .text          0x0000000008000654        0xc ../../src/tools.o
                0x0000000008000654                Delay1Ms_Counting
                0x0000000008000658                Delay1Ms
                0x000000000800065c                DelayMs
 .text          0x0000000008000660       0x50 ../../src/utils/memory_ops.o
                0x0000000008000660                getu16
                0x000000000800066c                getu32
                0x0000000008000684                getu64
 .text          0x00000000080006b0      0x544 ../../src/ccid/Ccid_usb.o
                0x00000000080006b0                CCID_Init
                0x00000000080006e0                CCID_Init_IT
                0x0000000008000720                CCID_Suspend_IT
                0x0000000008000760                CCID_Bot_Abort
                0x00000000080007a0                CCID_Storage_Out
                0x00000000080007c4                CCID_BulkOutMessage
                0x0000000008000900                CCID_BulkInMessage
                0x00000000080009f8                CCID_DispatchMessage
                0x0000000008000aac                CCID_IntMessage
                0x0000000008000b94                CcidClassRequestAbort
                0x0000000008000b98                CcidClassRequestGetClockFrequencies
                0x0000000008000b9c                CcidClassRequestGetDataRates
                0x0000000008000ba0                CCID_SendCardDetect
                0x0000000008000bbc                CCID_CheckUsbCommunication
                0x0000000008000bdc                CCID_SetCardState
                0x0000000008000be8                CCID_GetCardState
 .text          0x0000000008000bf4      0x424 ../../src/ccid/Ifd_protocol.o
                0x0000000008000bf4                IFD_Init
                0x0000000008000c40                IFD_ApplyParametersStructure
                0x0000000008000cc4                IFD_UpdateConvParameterStructure
                0x0000000008000ce4                GetExpectedAnswerSizeFromAPDU
                0x0000000008000d10                IFD_XfrCharT0
                0x0000000008000dac                IFD_XfrBlock
                0x0000000008000e40                IFD_XfrCharT1
                0x0000000008000e44                IFD_XfrTpduT0
                0x0000000008000e48                IFD_XfrTpduT1
                0x0000000008000e4c                IFD_GetParameters
                0x0000000008000e78                IFD_SetParameters
                0x0000000008000f30                IFD_EscapeSendHwName
                0x0000000008000f5c                IFD_Escape
                0x0000000008000f9c                IFD_SetClock
                0x0000000008000fb8                IFD_SetATRData
 .text          0x0000000008001018      0x27c ../../src/ccid/Crd.o
                0x0000000008001018                CRD_Init
                0x0000000008001024                CRD_GetHwError
                0x0000000008001050                CRD_VccOn
                0x0000000008001070                CRD_VccOff
                0x0000000008001074                CRD_VccOff_IT
                0x0000000008001078                CRD_SetMode
                0x000000000800107c                CRD_SetConvention
                0x0000000008001080                CRD_GetSlotStatus
                0x0000000008001084                CRD_GetConvention
                0x0000000008001088                CRD_GetClockStatus
                0x000000000800108c                CRD_SetClock
                0x0000000008001090                CRD_SetEtu
                0x00000000080010a0                CRD_SetGuardTime
                0x00000000080010a4                CRD_SetWaitingTime
                0x00000000080010a8                CRD_StartWaitingTime
                0x00000000080010b8                CRD_StopWaitingTime
                0x00000000080010bc                CRD_WaitingTime
                0x00000000080010d4                CRD_InitReceive
                0x0000000008001104                CRD_CharRepeatOn
                0x0000000008001108                CRD_CharRepeatOff
                0x0000000008001118                CRD_EndReceive
                0x0000000008001124                CRD_InitTransmit
                0x000000000800114c                CRD_NumberOfBytesToTransmit
                0x0000000008001158                CRD_EndTransmit
                0x0000000008001164                ICC_ResetAsync
                0x0000000008001194                ICC_SendCommandAsync
                0x000000000800121c                ICC_ReceiveAnswerAsync
 .text          0x0000000008001294      0x4d8 ../../src/ccid/Ifd_ccid.o
                0x0000000008001294                PC_to_RDR_IccPowerOn
                0x00000000080012d8                PC_to_RDR_IccPowerOff
                0x00000000080012dc                PC_to_RDR_GetSlotStatus
                0x0000000008001328                PC_to_RDR_XfrBlock
                0x00000000080013ac                PC_to_RDR_GetParameters
                0x0000000008001404                PC_to_RDR_ResetParameters
                0x000000000800146c                PC_to_RDR_SetParameters
                0x00000000080014e4                PC_to_RDR_Escape
                0x0000000008001568                PC_to_RDR_IccClock
                0x00000000080015c0                PC_to_RDR_Abort
                0x0000000008001620                RDR_to_PC_DataBlock
                0x0000000008001650                RDR_to_PC_SlotStatus
                0x0000000008001684                RDR_to_PC_SlotStatus_CardStopped
                0x0000000008001698                RDR_to_PC_Parameters
                0x00000000080016dc                RDR_to_PC_Escape
                0x000000000800170c                CmdNotSupported
                0x000000000800172c                RDR_to_PC_NotifySlotChange
                0x0000000008001748                RDR_to_PC_HardwareError
 .text          0x000000000800176c      0x890 ../../src/ccid/CcidLocalAccess.o
                0x000000000800176c                InitSCTStruct
                0x0000000008001778                GenerateCRC
                0x0000000008001798                GenerateTPDU
                0x00000000080017f0                GenerateChainedTPDU
                0x000000000800181c                SendTPDU
                0x0000000008001890                SendAPDU
                0x0000000008001950                CcidSelectOpenPGPApp
                0x0000000008001994                CcidGetData
                0x00000000080019bc                CcidChangePin
                0x0000000008001a20                CcidVerifyPin
                0x0000000008001a60                CcidDecipher
                0x0000000008001ac4                CcidGetChallenge
                0x0000000008001b14                CcidPutAesKey
                0x0000000008001b60                CcidAesDecSub
                0x0000000008001b70                CcidAesDec
                0x0000000008001b8c                getRandomNumber
                0x0000000008001b9c                AccessTestGPG
                0x0000000008001cc0                CcidLocalAccessTest
                0x0000000008001cdc                CcidReset
                0x0000000008001d28                getAID
                0x0000000008001d54                getSerialNumber
                0x0000000008001d80                getByteOfData
                0x0000000008001d8c                cardAuthenticate
                0x0000000008001db8                userAuthenticate
                0x0000000008001de4                factoryReset
                0x0000000008001e64                changeUserPin
                0x0000000008001e94                changeAdminPin
                0x0000000008001ec4                getPasswordRetryCount
                0x0000000008001ef8                getUserPasswordRetryCount
                0x0000000008001f2c                isAesSupported
                0x0000000008001fa4                sendAESMasterKey
                0x0000000008001fbc                testScAesKey
                0x0000000008001fe8                testSendUserPW2
 .text          0x0000000008001ffc      0xcec ../../src/ccid/smartcard/smartcard.o
                0x00000000080020c8                GPIO_Configuration_Smartcard
                0x00000000080020f0                SmartcardOn
                0x000000000800210c                SmartcardOff
                0x0000000008002128                Delay
                0x0000000008002144                Delay_noUSBCheck
                0x0000000008002154                SC_PowerCmd
                0x00000000080021bc                SC_Reset
                0x00000000080021cc                SC_ParityErrorHandler
                0x00000000080021f0                SC_SetHwParams
                0x0000000008002270                SC_PTSConfig
                0x00000000080024ac                SC_Init
                0x0000000008002608                SC_Handler
                0x0000000008002a1c                WaitForATR
                0x0000000008002a78                CRD_SendCommand
                0x0000000008002b7c                InvalidateATR
                0x0000000008002b88                initSCHardware
                0x0000000008002c90                RestartSmartcard
                0x0000000008002cac                SmartCardInitInterface
 .text          0x0000000008002ce8      0x488 ../../src/ccid/CCIDHID_USB/CCIDHID_usb_prop.o
                0x0000000008002ce8                USB_CCID_Storage_SetDeviceAddress
                0x0000000008002cf4                USB_CCID_Status_Out
                0x0000000008002cf8                USB_CCID_Data_Setup
                0x0000000008002d90                USB_CCID_NoData_Setup
                0x0000000008002db8                USB_CCID_Get_Interface_Setting
                0x0000000008002dc8                Keyboard_GetProtocolValue
                0x0000000008002de0                Keyboard_GetReport_Feature
                0x0000000008002e28                Keyboard_SetReport_Feature
                0x0000000008002e40                Keyboard_SetReport_Output
                0x0000000008002e58                USB_CCID_init
                0x0000000008002e94                USB_CCID_Reset
                0x0000000008002fc8                USB_CCID_GetDeviceDescriptor
                0x0000000008002fd4                USB_CCID_GetConfigDescriptor
                0x0000000008002fe0                USB_CCID_GetStringDescriptor
                0x0000000008003000                Keyboard_GetReportDescriptor
                0x000000000800300c                Keyboard_GetHIDDescriptor
                0x0000000008003018                USB_CCID_Status_In
                0x0000000008003104                USB_CCID_Storage_SetConfiguration
                0x0000000008003140                USB_CCID_Get_Max_Lun
                0x0000000008003158                Keyboard_SetProtocol
 .text          0x0000000008003170        0x0 ../../src/ccid/CCIDHID_USB/CCIDHID_usb_desc.o
 .text          0x0000000008003170        0x0 ../../src/sd-disk/sd-usb/usb_desc.o
 .text          0x0000000008003170      0x278 ../../src/sd-disk/sd-usb/usb_prop.o
                0x0000000008003170                Mass_Storage_SetDeviceAddress
                0x000000000800317c                MASS_Status_In
                0x0000000008003180                MASS_Status_Out
                0x0000000008003184                MASS_Get_Interface_Setting
                0x0000000008003194                Get_Max_Lun
                0x00000000080031ac                MASS_init
                0x00000000080031e8                MASS_Reset
                0x00000000080032d8                Mass_Storage_ClearFeature
                0x00000000080032f4                MASS_GetDeviceDescriptor
                0x0000000008003300                MASS_GetConfigDescriptor
                0x000000000800330c                MASS_GetStringDescriptor
                0x0000000008003330                Mass_Storage_SetConfiguration
                0x0000000008003360                MASS_NoData_Setup
                0x00000000080033b0                MASS_Data_Setup
 .text          0x00000000080033e8       0x78 ../../src/stm/stm32f10x_systick.o
                0x00000000080033e8                SysTick_SetReload
                0x00000000080033f4                SysTick_CounterCmd
                0x000000000800341c                SysTick_ITConfig
                0x0000000008003438                SysTick_GetCounter
                0x0000000008003444                SysTick_GetFlagStatus
 .text          0x0000000008003460       0xf4 ../../src/stm/stm32f10x_it.o
                0x0000000008003460                NMI_Handler
                0x0000000008003464                HardFault_Handler
                0x0000000008003468                MemManage_Handler
                0x000000000800346c                BusFault_Handler
                0x0000000008003470                UsageFault_Handler
                0x0000000008003474                SVC_Handler
                0x0000000008003478                DebugMon_Handler
                0x000000000800347c                PendSV_Handler
                0x0000000008003480                SysTick_Handler
                0x00000000080034c8                USB_HP_CAN1_TX_IRQHandler
                0x00000000080034cc                USB_LP_CAN1_RX0_IRQHandler
                0x00000000080034d0                SDIO_IRQHandler
                0x00000000080034d4                TIM2_IRQHandler
 .text          0x0000000008003554       0xa4 ../../src/stm/Libraries/CMSIS/Core/CM3/core_cm3.o
                0x0000000008003554                __get_PSP
                0x000000000800355c                __set_PSP
                0x0000000008003564                __get_MSP
                0x000000000800356c                __set_MSP
                0x0000000008003574                __get_BASEPRI
                0x000000000800357c                __set_BASEPRI
                0x0000000008003584                __get_PRIMASK
                0x000000000800358c                __set_PRIMASK
                0x0000000008003594                __get_FAULTMASK
                0x000000000800359c                __set_FAULTMASK
                0x00000000080035a4                __REV
                0x00000000080035a8                __REV16
                0x00000000080035ac                __REVSH
                0x00000000080035b0                __RBIT
                0x00000000080035b8                __LDREXB
                0x00000000080035c0                __LDREXH
                0x00000000080035c8                __LDREXW
                0x00000000080035d0                __STREXB
                0x00000000080035d8                __STREXH
                0x00000000080035e0                __STREXW
                0x00000000080035e8                __get_CONTROL
                0x00000000080035f0                __set_CONTROL
 .text          0x00000000080035f8       0xf8 ../../src/stm/Libraries/CMSIS/Core/CM3/system_stm32f10x.o
                0x00000000080035f8                SystemInit
 .text          0x00000000080036f0       0xdc ../../src/stm/Libraries/CMSIS/Core/CM3/startup/gcc/startup_stm32f10x_hd.o
                0x00000000080036f0                EXTI2_IRQHandler
                0x00000000080036f0                TIM8_TRG_COM_IRQHandler
                0x00000000080036f0                TIM8_CC_IRQHandler
                0x00000000080036f0                TIM1_CC_IRQHandler
                0x00000000080036f0                TIM6_IRQHandler
                0x00000000080036f0                PVD_IRQHandler
                0x00000000080036f0                EXTI3_IRQHandler
                0x00000000080036f0                EXTI0_IRQHandler
                0x00000000080036f0                I2C2_EV_IRQHandler
                0x00000000080036f0                ADC1_2_IRQHandler
                0x00000000080036f0                SPI1_IRQHandler
                0x00000000080036f0                TAMPER_IRQHandler
                0x00000000080036f0                TIM8_UP_IRQHandler
                0x00000000080036f0                DMA2_Channel2_IRQHandler
                0x00000000080036f0                DMA1_Channel4_IRQHandler
                0x00000000080036f0                USART3_IRQHandler
                0x00000000080036f0                RTC_IRQHandler
                0x00000000080036f0                DMA1_Channel7_IRQHandler
                0x00000000080036f0                CAN1_RX1_IRQHandler
                0x00000000080036f0                UART5_IRQHandler
                0x00000000080036f0                ADC3_IRQHandler
                0x00000000080036f0                TIM4_IRQHandler
                0x00000000080036f0                DMA2_Channel1_IRQHandler
                0x00000000080036f0                I2C1_EV_IRQHandler
                0x00000000080036f0                DMA1_Channel6_IRQHandler
                0x00000000080036f0                UART4_IRQHandler
                0x00000000080036f0                TIM3_IRQHandler
                0x00000000080036f0                RCC_IRQHandler
                0x00000000080036f0                TIM1_TRG_COM_IRQHandler
                0x00000000080036f0                DMA1_Channel1_IRQHandler
                0x00000000080036f0                Default_Handler
                0x00000000080036f0                EXTI15_10_IRQHandler
                0x00000000080036f0                TIM7_IRQHandler
                0x00000000080036f0                TIM5_IRQHandler
                0x00000000080036f0                EXTI9_5_IRQHandler
                0x00000000080036f0                SPI2_IRQHandler
                0x00000000080036f0                DMA1_Channel5_IRQHandler
                0x00000000080036f0                EXTI4_IRQHandler
                0x00000000080036f0                DMA1_Channel3_IRQHandler
                0x00000000080036f0                FSMC_IRQHandler
                0x00000000080036f0                TIM1_UP_IRQHandler
                0x00000000080036f0                WWDG_IRQHandler
                0x00000000080036f0                TIM1_BRK_IRQHandler
                0x00000000080036f0                EXTI1_IRQHandler
                0x00000000080036f0                RTCAlarm_IRQHandler
                0x00000000080036f0                DMA2_Channel4_5_IRQHandler
                0x00000000080036f0                USART2_IRQHandler
                0x00000000080036f0                I2C2_ER_IRQHandler
                0x00000000080036f0                DMA1_Channel2_IRQHandler
                0x00000000080036f0                TIM8_BRK_IRQHandler
                0x00000000080036f0                CAN1_SCE_IRQHandler
                0x00000000080036f0                FLASH_IRQHandler
                0x00000000080036f0                USART1_IRQHandler
                0x00000000080036f0                SPI3_IRQHandler
                0x00000000080036f0                I2C1_ER_IRQHandler
                0x00000000080036f0                USBWakeUp_IRQHandler
                0x00000000080036f0                DMA2_Channel3_IRQHandler
                0x00000000080036f4                __Init_Data
                0x0000000008003750                SystemInit_ExtMemCtl_Dummy
                0x0000000008003750                SystemInit_ExtMemCtl
                0x0000000008003754                Reset_Handler
 .text          0x00000000080037cc       0xc8 ../../src/stm/Libraries/STM32F10x_StdPeriph_Driver/src/misc.o
                0x00000000080037cc                NVIC_PriorityGroupConfig
                0x00000000080037e0                NVIC_Init
                0x0000000008003850                NVIC_SetVectorTable
                0x0000000008003864                NVIC_SystemLPConfig
                0x000000000800387c                SysTick_CLKSourceConfig
 .text          0x0000000008003894      0x37c ../../src/stm/Libraries/STM32F10x_StdPeriph_Driver/src/stm32f10x_adc.o
                0x0000000008003894                ADC_DeInit
                0x00000000080038fc                ADC_Init
                0x0000000008003944                ADC_StructInit
                0x0000000008003958                ADC_Cmd
                0x000000000800396c                ADC_DMACmd
                0x0000000008003980                ADC_ITConfig
                0x0000000008003994                ADC_ResetCalibration
                0x00000000080039a0                ADC_GetResetCalibrationStatus
                0x00000000080039a8                ADC_StartCalibration
                0x00000000080039b4                ADC_GetCalibrationStatus
                0x00000000080039bc                ADC_SoftwareStartConvCmd
                0x00000000080039d0                ADC_GetSoftwareStartConvStatus
                0x00000000080039d8                ADC_DiscModeChannelCountConfig
                0x00000000080039e8                ADC_DiscModeCmd
                0x00000000080039fc                ADC_RegularChannelConfig
                0x0000000008003a98                ADC_ExternalTrigConvCmd
                0x0000000008003aac                ADC_GetConversionValue
                0x0000000008003ab4                ADC_GetDualModeConversionValue
                0x0000000008003ac0                ADC_AutoInjectedConvCmd
                0x0000000008003ad4                ADC_InjectedDiscModeCmd
                0x0000000008003ae8                ADC_ExternalTrigInjectedConvConfig
                0x0000000008003af4                ADC_ExternalTrigInjectedConvCmd
                0x0000000008003b08                ADC_SoftwareStartInjectedConvCmd
                0x0000000008003b1c                ADC_GetSoftwareStartInjectedConvCmdStatus
                0x0000000008003b24                ADC_InjectedChannelConfig
                0x0000000008003b80                ADC_InjectedSequencerLengthConfig
                0x0000000008003b90                ADC_SetInjectedOffset
                0x0000000008003b94                ADC_GetInjectedConversionValue
                0x0000000008003b9c                ADC_AnalogWatchdogCmd
                0x0000000008003bac                ADC_AnalogWatchdogThresholdsConfig
                0x0000000008003bb4                ADC_AnalogWatchdogSingleChannelConfig
                0x0000000008003bc0                ADC_TempSensorVrefintCmd
                0x0000000008003bdc                ADC_GetFlagStatus
                0x0000000008003be8                ADC_ClearFlag
                0x0000000008003bf0                ADC_GetITStatus
                0x0000000008003c08                ADC_ClearITPendingBit
 .text          0x0000000008003c10       0xc4 ../../src/stm/Libraries/STM32F10x_StdPeriph_Driver/src/stm32f10x_bkp.o
                0x0000000008003c10                BKP_DeInit
                0x0000000008003c24                BKP_TamperPinLevelConfig
                0x0000000008003c30                BKP_TamperPinCmd
                0x0000000008003c3c                BKP_ITConfig
                0x0000000008003c48                BKP_RTCOutputConfig
                0x0000000008003c60                BKP_SetRTCCalibrationValue
                0x0000000008003c78                BKP_WriteBackupRegister
                0x0000000008003c84                BKP_ReadBackupRegister
                0x0000000008003c94                BKP_GetFlagStatus
                0x0000000008003ca0                BKP_ClearFlag
                0x0000000008003cb4                BKP_GetITStatus
                0x0000000008003cc0                BKP_ClearITPendingBit
 .text          0x0000000008003cd4      0x614 ../../src/stm/Libraries/STM32F10x_StdPeriph_Driver/src/stm32f10x_can.o
                0x0000000008003cd4                CAN_DeInit
                0x0000000008003cfc                CAN_Init
                0x0000000008003ddc                CAN_FilterInit
                0x0000000008003ed0                CAN_StructInit
                0x0000000008003ef8                CAN_ITConfig
                0x0000000008003f0c                CAN_Transmit
                0x0000000008003fdc                CAN_TransmitStatus
                0x0000000008004050                CAN_CancelTransmit
                0x000000000800407c                CAN_FIFORelease
                0x0000000008004088                CAN_MessagePending
                0x00000000080040a0                CAN_Receive
                0x0000000008004130                CAN_DBGFreeze
                0x0000000008004144                CAN_Sleep
                0x0000000008004160                CAN_WakeUp
                0x000000000800418c                CAN_GetFlagStatus
                0x0000000008004198                CAN_ClearFlag
                0x00000000080041a4                CAN_GetITStatus
                0x0000000008004248                CAN_ClearITPendingBit
 .text          0x00000000080042e8       0x58 ../../src/stm/Libraries/STM32F10x_StdPeriph_Driver/src/stm32f10x_crc.o
                0x00000000080042e8                CRC_ResetDR
                0x00000000080042f4                CRC_CalcCRC
                0x0000000008004300                CRC_CalcBlockCRC
                0x000000000800431c                CRC_GetCRC
                0x0000000008004328                CRC_SetIDRegister
                0x0000000008004334                CRC_GetIDRegister
 .text          0x0000000008004340      0x130 ../../src/stm/Libraries/STM32F10x_StdPeriph_Driver/src/stm32f10x_dac.o
                0x0000000008004340                DAC_DeInit
                0x000000000800435c                DAC_Init
                0x000000000800438c                DAC_StructInit
                0x0000000008004398                DAC_Cmd
                0x00000000080043b8                DAC_DMACmd
                0x00000000080043d8                DAC_SoftwareTriggerCmd
                0x00000000080043f8                DAC_DualSoftwareTriggerCmd
                0x0000000008004414                DAC_WaveGenerationCmd
                0x0000000008004430                DAC_SetChannel1Data
                0x000000000800443c                DAC_SetChannel2Data
                0x0000000008004448                DAC_SetDualChannelData
                0x0000000008004460                DAC_GetDataOutputValue
 .text          0x0000000008004470       0x34 ../../src/stm/Libraries/STM32F10x_StdPeriph_Driver/src/stm32f10x_dbgmcu.o
                0x0000000008004470                DBGMCU_GetREVID
                0x000000000800447c                DBGMCU_GetDEVID
                0x000000000800448c                DBGMCU_Config
 .text          0x00000000080044a4      0x204 ../../src/stm/Libraries/STM32F10x_StdPeriph_Driver/src/stm32f10x_dma.o
                0x00000000080044a4                DMA_DeInit
                0x00000000080045bc                DMA_Init
                0x00000000080045fc                DMA_StructInit
                0x0000000008004618                DMA_Cmd
                0x000000000800462c                DMA_ITConfig
                0x0000000008004640                DMA_GetCurrDataCounter
                0x0000000008004648                DMA_GetFlagStatus
                0x0000000008004664                DMA_ClearFlag
                0x0000000008004678                DMA_GetITStatus
                0x0000000008004694                DMA_ClearITPendingBit
 .text          0x00000000080046a8      0x104 ../../src/stm/Libraries/STM32F10x_StdPeriph_Driver/src/stm32f10x_exti.o
                0x00000000080046a8                EXTI_DeInit
                0x00000000080046c4                EXTI_Init
                0x0000000008004744                EXTI_StructInit
                0x0000000008004754                EXTI_GenerateSWInterrupt
                0x0000000008004764                EXTI_GetFlagStatus
                0x0000000008004778                EXTI_ClearFlag
                0x0000000008004784                EXTI_GetITStatus
                0x00000000080047a0                EXTI_ClearITPendingBit
 .text          0x00000000080047ac      0x4b4 ../../src/stm/Libraries/STM32F10x_StdPeriph_Driver/src/stm32f10x_flash.o
                0x00000000080047ac                FLASH_SetLatency
                0x00000000080047c0                FLASH_HalfCycleAccessCmd
                0x00000000080047d8                FLASH_PrefetchBufferCmd
                0x00000000080047f0                FLASH_Unlock
                0x0000000008004808                FLASH_Lock
                0x0000000008004818                FLASH_GetUserOptionByte
                0x0000000008004824                FLASH_GetWriteProtectionOptionByte
                0x0000000008004830                FLASH_GetReadOutProtectionStatus
                0x0000000008004840                FLASH_GetPrefetchBufferStatus
                0x0000000008004850                FLASH_ITConfig
                0x0000000008004868                FLASH_GetFlagStatus
                0x0000000008004888                FLASH_ClearFlag
                0x0000000008004894                FLASH_GetStatus
                0x00000000080048bc                FLASH_WaitForLastOperation
                0x0000000008004904                FLASH_ErasePage
                0x0000000008004948                FLASH_EraseAllPages
                0x0000000008004988                FLASH_EraseOptionBytes
                0x0000000008004a04                FLASH_ProgramWord
                0x0000000008004a54                FLASH_ProgramHalfWord
                0x0000000008004a8c                FLASH_ProgramOptionByteData
                0x0000000008004ad4                FLASH_EnableWriteProtection
                0x0000000008004b74                FLASH_ReadOutProtection
                0x0000000008004c08                FLASH_UserOptionByteConfig
 .text          0x0000000008004c60      0x4a0 ../../src/stm/Libraries/STM32F10x_StdPeriph_Driver/src/stm32f10x_fsmc.o
                0x0000000008004c60                FSMC_NORSRAMDeInit
                0x0000000008004c98                FSMC_NANDDeInit
                0x0000000008004cbc                FSMC_PCCARDDeInit
                0x0000000008004cd8                FSMC_NORSRAMInit
                0x0000000008004d94                FSMC_NANDInit
                0x0000000008004e10                FSMC_PCCARDInit
                0x0000000008004e78                FSMC_NORSRAMStructInit
                0x0000000008004ecc                FSMC_NANDStructInit
                0x0000000008004efc                FSMC_PCCARDStructInit
                0x0000000008004f2c                FSMC_NORSRAMCmd
                0x0000000008004f4c                FSMC_NANDCmd
                0x0000000008004f80                FSMC_PCCARDCmd
                0x0000000008004fa4                FSMC_NANDECCCmd
                0x0000000008004fd8                FSMC_GetECC
                0x0000000008004fec                FSMC_ITConfig
                0x0000000008005040                FSMC_GetFlagStatus
                0x000000000800506c                FSMC_ClearFlag
                0x000000000800509c                FSMC_GetITStatus
                0x00000000080050d0                FSMC_ClearITPendingBit
 .text          0x0000000008005100      0x2c8 ../../src/stm/Libraries/STM32F10x_StdPeriph_Driver/src/stm32f10x_gpio.o
                0x0000000008005100                GPIO_DeInit
                0x00000000080051d4                GPIO_AFIODeInit
                0x00000000080051ec                GPIO_Init
                0x00000000080052b0                GPIO_StructInit
                0x00000000080052c0                GPIO_ReadInputDataBit
                0x00000000080052cc                GPIO_ReadInputData
                0x00000000080052d4                GPIO_ReadOutputDataBit
                0x00000000080052e0                GPIO_ReadOutputData
                0x00000000080052e8                GPIO_SetBits
                0x00000000080052ec                GPIO_ResetBits
                0x00000000080052f0                GPIO_WriteBit
                0x00000000080052fc                GPIO_Write
                0x0000000008005300                GPIO_PinLockConfig
                0x0000000008005310                GPIO_EventOutputConfig
                0x0000000008005330                GPIO_EventOutputCmd
                0x000000000800533c                GPIO_PinRemapConfig
                0x000000000800539c                GPIO_EXTILineConfig
 .text          0x00000000080053c8      0x400 ../../src/stm/Libraries/STM32F10x_StdPeriph_Driver/src/stm32f10x_i2c.o
                0x00000000080053c8                I2C_DeInit
                0x0000000008005410                I2C_Init
                0x00000000080054ec                I2C_StructInit
                0x0000000008005510                I2C_Cmd
                0x000000000800552c                I2C_DMACmd
                0x0000000008005548                I2C_DMALastTransferCmd
                0x0000000008005564                I2C_GenerateSTART
                0x0000000008005580                I2C_GenerateSTOP
                0x000000000800559c                I2C_AcknowledgeConfig
                0x00000000080055b8                I2C_OwnAddress2Config
                0x00000000080055cc                I2C_DualAddressCmd
                0x00000000080055e8                I2C_GeneralCallCmd
                0x0000000008005604                I2C_ITConfig
                0x0000000008005618                I2C_SendData
                0x000000000800561c                I2C_ReceiveData
                0x0000000008005624                I2C_Send7bitAddress
                0x0000000008005638                I2C_ReadRegister
                0x0000000008005648                I2C_SoftwareResetCmd
                0x0000000008005664                I2C_SMBusAlertConfig
                0x0000000008005684                I2C_TransmitPEC
                0x00000000080056a0                I2C_PECPositionConfig
                0x00000000080056c0                I2C_CalculatePEC
                0x00000000080056dc                I2C_GetPEC
                0x00000000080056e4                I2C_ARPCmd
                0x0000000008005700                I2C_StretchClockCmd
                0x000000000800571c                I2C_FastModeDutyCycleConfig
                0x000000000800573c                I2C_GetLastEvent
                0x000000000800574c                I2C_CheckEvent
                0x0000000008005764                I2C_GetFlagStatus
                0x000000000800579c                I2C_ClearFlag
                0x00000000080057a4                I2C_GetITStatus
                0x00000000080057c0                I2C_ClearITPendingBit
 .text          0x00000000080057c8       0x58 ../../src/stm/Libraries/STM32F10x_StdPeriph_Driver/src/stm32f10x_iwdg.o
                0x00000000080057c8                IWDG_WriteAccessCmd
                0x00000000080057d4                IWDG_SetPrescaler
                0x00000000080057e0                IWDG_SetReload
                0x00000000080057ec                IWDG_ReloadCounter
                0x00000000080057fc                IWDG_Enable
                0x000000000800580c                IWDG_GetFlagStatus
 .text          0x0000000008005820       0xd4 ../../src/stm/Libraries/STM32F10x_StdPeriph_Driver/src/stm32f10x_pwr.o
                0x0000000008005820                PWR_DeInit
                0x000000000800583c                PWR_BackupAccessCmd
                0x0000000008005848                PWR_PVDCmd
                0x0000000008005854                PWR_PVDLevelConfig
                0x0000000008005868                PWR_WakeUpPinCmd
                0x0000000008005874                PWR_EnterSTOPMode
                0x00000000080058a8                PWR_EnterSTANDBYMode
                0x00000000080058d0                PWR_GetFlagStatus
                0x00000000080058e4                PWR_ClearFlag
 .text          0x00000000080058f4      0x368 ../../src/stm/Libraries/STM32F10x_StdPeriph_Driver/src/stm32f10x_rcc.o
                0x00000000080058f4                RCC_DeInit
                0x0000000008005930                RCC_HSEConfig
                0x0000000008005968                RCC_WaitForHSEStartUp
                0x000000000800599c                RCC_AdjustHSICalibrationValue
                0x00000000080059b0                RCC_HSICmd
                0x00000000080059bc                RCC_PLLConfig
                0x00000000080059d0                RCC_PLLCmd
                0x00000000080059dc                RCC_SYSCLKConfig
                0x00000000080059f0                RCC_GetSYSCLKSource
                0x0000000008005a00                RCC_HCLKConfig
                0x0000000008005a14                RCC_PCLK1Config
                0x0000000008005a28                RCC_PCLK2Config
                0x0000000008005a3c                RCC_ITConfig
                0x0000000008005a54                RCC_USBCLKConfig
                0x0000000008005a60                RCC_ADCCLKConfig
                0x0000000008005a74                RCC_LSEConfig
                0x0000000008005a94                RCC_LSICmd
                0x0000000008005aa0                RCC_RTCCLKConfig
                0x0000000008005ab0                RCC_RTCCLKCmd
                0x0000000008005abc                RCC_GetClocksFreq
                0x0000000008005b5c                RCC_AHBPeriphClockCmd
                0x0000000008005b74                RCC_APB2PeriphClockCmd
                0x0000000008005b8c                RCC_APB1PeriphClockCmd
                0x0000000008005ba4                RCC_APB2PeriphResetCmd
                0x0000000008005bbc                RCC_APB1PeriphResetCmd
                0x0000000008005bd4                RCC_BackupResetCmd
                0x0000000008005be0                RCC_ClockSecuritySystemCmd
                0x0000000008005bec                RCC_MCOConfig
                0x0000000008005bf8                RCC_GetFlagStatus
                0x0000000008005c2c                RCC_ClearFlag
                0x0000000008005c3c                RCC_GetITStatus
                0x0000000008005c50                RCC_ClearITPendingBit
 .text          0x0000000008005c5c      0x170 ../../src/stm/Libraries/STM32F10x_StdPeriph_Driver/src/stm32f10x_rtc.o
                0x0000000008005c5c                RTC_ITConfig
                0x0000000008005c78                RTC_EnterConfigMode
                0x0000000008005c8c                RTC_ExitConfigMode
                0x0000000008005ca0                RTC_GetCounter
                0x0000000008005cb4                RTC_SetCounter
                0x0000000008005cdc                RTC_SetPrescaler
                0x0000000008005d04                RTC_SetAlarm
                0x0000000008005d2c                RTC_GetDivider
                0x0000000008005d44                RTC_WaitForLastTask
                0x0000000008005d54                RTC_WaitForSynchro
                0x0000000008005d70                RTC_GetFlagStatus
                0x0000000008005d84                RTC_ClearFlag
                0x0000000008005d98                RTC_GetITStatus
                0x0000000008005db8                RTC_ClearITPendingBit
 .text          0x0000000008005dcc      0x228 ../../src/stm/Libraries/STM32F10x_StdPeriph_Driver/src/stm32f10x_sdio.o
                0x0000000008005dcc                SDIO_DeInit
                0x0000000008005df0                SDIO_Init
                0x0000000008005e20                SDIO_StructInit
                0x0000000008005e30                SDIO_ClockCmd
                0x0000000008005e3c                SDIO_SetPowerState
                0x0000000008005e54                SDIO_GetPowerState
                0x0000000008005e64                SDIO_ITConfig
                0x0000000008005e7c                SDIO_DMACmd
                0x0000000008005e88                SDIO_SendCommand
                0x0000000008005eb4                SDIO_CmdStructInit
                0x0000000008005ec4                SDIO_GetCommandResponse
                0x0000000008005ed0                SDIO_GetResponse
                0x0000000008005edc                SDIO_DataConfig
                0x0000000008005f08                SDIO_DataStructInit
                0x0000000008005f1c                SDIO_GetDataCounter
                0x0000000008005f28                SDIO_ReadData
                0x0000000008005f34                SDIO_WriteData
                0x0000000008005f40                SDIO_GetFIFOCount
                0x0000000008005f4c                SDIO_StartSDIOReadWait
                0x0000000008005f58                SDIO_StopSDIOReadWait
                0x0000000008005f64                SDIO_SetSDIOReadWaitMode
                0x0000000008005f70                SDIO_SetSDIOOperation
                0x0000000008005f7c                SDIO_SendSDIOSuspendCmd
                0x0000000008005f88                SDIO_CommandCompletionCmd
                0x0000000008005f94                SDIO_CEATAITCmd
                0x0000000008005fa8                SDIO_SendCEATACmd
                0x0000000008005fb4                SDIO_GetFlagStatus
                0x0000000008005fc8                SDIO_ClearFlag
                0x0000000008005fd4                SDIO_GetITStatus
                0x0000000008005fe8                SDIO_ClearITPendingBit
 .text          0x0000000008005ff4      0x2fc ../../src/stm/Libraries/STM32F10x_StdPeriph_Driver/src/stm32f10x_spi.o
                0x0000000008005ff4                SPI_I2S_DeInit
                0x000000000800605c                SPI_Init
                0x000000000800609c                I2S_Init
                0x000000000800614c                SPI_StructInit
                0x0000000008006164                I2S_StructInit
                0x0000000008006178                SPI_Cmd
                0x0000000008006194                I2S_Cmd
                0x00000000080061b0                SPI_I2S_ITConfig
                0x00000000080061d0                SPI_I2S_DMACmd
                0x00000000080061e4                SPI_I2S_SendData
                0x00000000080061e8                SPI_I2S_ReceiveData
                0x00000000080061f0                SPI_NSSInternalSoftwareConfig
                0x0000000008006210                SPI_SSOutputCmd
                0x000000000800622c                SPI_DataSizeConfig
                0x0000000008006244                SPI_TransmitCRC
                0x0000000008006250                SPI_CalculateCRC
                0x000000000800626c                SPI_GetCRC
                0x0000000008006278                SPI_GetCRCPolynomial
                0x0000000008006280                SPI_BiDirectionalLineConfig
                0x00000000080062a0                SPI_I2S_GetFlagStatus
                0x00000000080062ac                SPI_I2S_ClearFlag
                0x00000000080062b4                SPI_I2S_GetITStatus
                0x00000000080062e0                SPI_I2S_ClearITPendingBit
 .text          0x00000000080062f0      0xcb0 ../../src/stm/Libraries/STM32F10x_StdPeriph_Driver/src/stm32f10x_tim.o
                0x00000000080062f0                TIM_DeInit
                0x00000000080063e8                TIM_TimeBaseInit
                0x0000000008006430                TIM_OC1Init
                0x00000000080064b4                TIM_OC2Init
                0x0000000008006548                TIM_OC3Init
                0x00000000080065d8                TIM_OC4Init
                0x0000000008006648                TIM_ICInit
                0x00000000080067b0                TIM_PWMIConfig
                0x0000000008006900                TIM_BDTRConfig
                0x0000000008006928                TIM_TimeBaseStructInit
                0x000000000800693c                TIM_OCStructInit
                0x0000000008006950                TIM_ICStructInit
                0x0000000008006960                TIM_BDTRStructInit
                0x0000000008006974                TIM_Cmd
                0x0000000008006990                TIM_CtrlPWMOutputs
                0x00000000080069b0                TIM_ITConfig
                0x00000000080069c4                TIM_GenerateEvent
                0x00000000080069c8                TIM_DMAConfig
                0x00000000080069d0                TIM_DMACmd
                0x00000000080069e4                TIM_InternalClockConfig
                0x00000000080069f4                TIM_ITRxExternalClockConfig
                0x0000000008006a10                TIM_TIxExternalClockConfig
                0x0000000008006a98                TIM_ETRClockMode1Config
                0x0000000008006ac0                TIM_ETRClockMode2Config
                0x0000000008006ae4                TIM_ETRConfig
                0x0000000008006afc                TIM_PrescalerConfig
                0x0000000008006b04                TIM_CounterModeConfig
                0x0000000008006b14                TIM_SelectInputTrigger
                0x0000000008006b24                TIM_EncoderInterfaceConfig
                0x0000000008006b64                TIM_ForcedOC1Config
                0x0000000008006b74                TIM_ForcedOC2Config
                0x0000000008006b88                TIM_ForcedOC3Config
                0x0000000008006b98                TIM_ForcedOC4Config
                0x0000000008006bac                TIM_ARRPreloadConfig
                0x0000000008006bc8                TIM_SelectCOM
                0x0000000008006be4                TIM_SelectCCDMA
                0x0000000008006c00                TIM_CCPreloadControl
                0x0000000008006c1c                TIM_OC1PreloadConfig
                0x0000000008006c2c                TIM_OC2PreloadConfig
                0x0000000008006c40                TIM_OC3PreloadConfig
                0x0000000008006c50                TIM_OC4PreloadConfig
                0x0000000008006c64                TIM_OC1FastConfig
                0x0000000008006c74                TIM_OC2FastConfig
                0x0000000008006c88                TIM_OC3FastConfig
                0x0000000008006c98                TIM_OC4FastConfig
                0x0000000008006cac                TIM_ClearOC1Ref
                0x0000000008006cbc                TIM_ClearOC2Ref
                0x0000000008006ccc                TIM_ClearOC3Ref
                0x0000000008006cdc                TIM_ClearOC4Ref
                0x0000000008006cec                TIM_OC1PolarityConfig
                0x0000000008006cfc                TIM_OC1NPolarityConfig
                0x0000000008006d0c                TIM_OC2PolarityConfig
                0x0000000008006d20                TIM_OC2NPolarityConfig
                0x0000000008006d34                TIM_OC3PolarityConfig
                0x0000000008006d48                TIM_OC3NPolarityConfig
                0x0000000008006d5c                TIM_OC4PolarityConfig
                0x0000000008006d70                TIM_CCxCmd
                0x0000000008006d8c                TIM_CCxNCmd
                0x0000000008006da8                TIM_SelectOCxM
                0x0000000008006df8                TIM_UpdateDisableConfig
                0x0000000008006e14                TIM_UpdateRequestConfig
                0x0000000008006e30                TIM_SelectHallSensor
                0x0000000008006e4c                TIM_SelectOnePulseMode
                0x0000000008006e60                TIM_SelectOutputTrigger
                0x0000000008006e78                TIM_SelectSlaveMode
                0x0000000008006e90                TIM_SelectMasterSlaveMode
                0x0000000008006ea8                TIM_SetCounter
                0x0000000008006eac                TIM_SetAutoreload
                0x0000000008006eb0                TIM_SetCompare1
                0x0000000008006eb4                TIM_SetCompare2
                0x0000000008006eb8                TIM_SetCompare3
                0x0000000008006ebc                TIM_SetCompare4
                0x0000000008006ec4                TIM_SetIC1Prescaler
                0x0000000008006edc                TIM_SetIC2Prescaler
                0x0000000008006ef8                TIM_SetIC3Prescaler
                0x0000000008006f10                TIM_SetIC4Prescaler
                0x0000000008006f2c                TIM_SetClockDivision
                0x0000000008006f3c                TIM_GetCapture1
                0x0000000008006f44                TIM_GetCapture2
                0x0000000008006f4c                TIM_GetCapture3
                0x0000000008006f54                TIM_GetCapture4
                0x0000000008006f5c                TIM_GetCounter
                0x0000000008006f64                TIM_GetPrescaler
                0x0000000008006f6c                TIM_GetFlagStatus
                0x0000000008006f78                TIM_ClearFlag
                0x0000000008006f80                TIM_GetITStatus
                0x0000000008006f98                TIM_ClearITPendingBit
 .text          0x0000000008006fa0      0x3ac ../../src/stm/Libraries/STM32F10x_StdPeriph_Driver/src/stm32f10x_usart.o
                0x0000000008006fa0                USART_DeInit
                0x000000000800704c                USART_Init
                0x00000000080070dc                USART_StructInit
                0x00000000080070f4                USART_ClockInit
                0x0000000008007118                USART_ClockStructInit
                0x0000000008007124                USART_Cmd
                0x0000000008007140                USART_ITConfig
                0x000000000800717c                USART_DMACmd
                0x0000000008007190                USART_SetAddress
                0x00000000080071a8                USART_WakeUpConfig
                0x00000000080071c0                USART_ReceiverWakeUpCmd
                0x00000000080071dc                USART_LINBreakDetectLengthConfig
                0x00000000080071f4                USART_LINCmd
                0x0000000008007210                USART_SendData
                0x0000000008007218                USART_ReceiveData
                0x0000000008007220                USART_SendBreak
                0x000000000800722c                USART_SetGuardTime
                0x0000000008007240                USART_SetPrescaler
                0x0000000008007254                USART_SmartCardCmd
                0x0000000008007270                USART_SmartCardNACKCmd
                0x000000000800728c                USART_HalfDuplexCmd
                0x00000000080072a8                USART_IrDAConfig
                0x00000000080072c0                USART_IrDACmd
                0x00000000080072dc                USART_GetFlagStatus
                0x00000000080072e8                USART_ClearFlag
                0x00000000080072f0                USART_GetITStatus
                0x000000000800733c                USART_ClearITPendingBit
 .text          0x000000000800734c       0x8c ../../src/stm/Libraries/STM32F10x_StdPeriph_Driver/src/stm32f10x_wwdg.o
                0x000000000800734c                WWDG_DeInit
                0x0000000008007368                WWDG_SetPrescaler
                0x000000000800737c                WWDG_SetWindowValue
                0x0000000008007394                WWDG_EnableIT
                0x00000000080073a0                WWDG_SetCounter
                0x00000000080073b0                WWDG_Enable
                0x00000000080073c0                WWDG_GetFlagStatus
                0x00000000080073cc                WWDG_ClearFlag
 .text          0x00000000080073d8      0x91c ../../src/stm/Libraries/STM32_USB-FS-Device_Driver/src/usb_core.o
                0x00000000080073d8                Standard_GetConfiguration
                0x0000000008007400                Standard_GetInterface
                0x00000000080074e0                Standard_GetStatus
                0x0000000008007560                Standard_SetConfiguration
                0x000000000800759c                Standard_SetInterface
                0x00000000080075ec                Standard_ClearFeature
                0x00000000080076c4                Standard_SetEndPointFeature
                0x0000000008007754                Standard_SetDeviceFeature
                0x0000000008007778                Standard_GetDescriptorData
                0x0000000008007794                Post0_Process
                0x00000000080077d8                Setup0_Process
                0x0000000008007b5c                Out0_Process
                0x0000000008007c44                SetDeviceAddress
                0x0000000008007c80                In0_Process
                0x0000000008007cf0                NOP_Process
 .text          0x0000000008007cf4       0xd0 ../../src/stm/Libraries/STM32_USB-FS-Device_Driver/src/usb_init.o
                0x0000000008007cf4                USB_SetDeviceConfiguration
                0x0000000008007d88                USB_Init
 .text          0x0000000008007dc4      0x1e0 ../../src/stm/Libraries/STM32_USB-FS-Device_Driver/src/usb_int.o
                0x0000000008007dc4                CTR_LP
                0x0000000008007f30                CTR_HP
 .text          0x0000000008007fa4       0x5c ../../src/stm/Libraries/STM32_USB-FS-Device_Driver/src/usb_mem.o
                0x0000000008007fa4                UserToPMABufferCopy
                0x0000000008007fe0                PMAToUserBufferCopy
 .text          0x0000000008008000      0x7a4 ../../src/stm/Libraries/STM32_USB-FS-Device_Driver/src/usb_regs.o
                0x0000000008008000                SetCNTR
                0x000000000800800c                GetCNTR
                0x0000000008008018                SetISTR
                0x0000000008008024                GetISTR
                0x0000000008008030                GetFNR
                0x000000000800803c                SetDADDR
                0x0000000008008048                GetDADDR
                0x0000000008008054                SetBTABLE
                0x0000000008008064                GetBTABLE
                0x0000000008008070                SetENDPOINT
                0x0000000008008080                GetENDPOINT
                0x0000000008008090                SetEPType
                0x00000000080080ac                GetEPType
                0x00000000080080c0                SetEPTxStatus
                0x00000000080080ec                SetEPRxStatus
                0x0000000008008118                SetDouBleBuffEPStall
                0x0000000008008144                GetEPTxStatus
                0x0000000008008158                GetEPRxStatus
                0x000000000800816c                SetEPTxValid
                0x000000000800818c                SetEPRxValid
                0x00000000080081ac                SetEP_KIND
                0x00000000080081cc                ClearEP_KIND
                0x00000000080081e4                Clear_Status_Out
                0x00000000080081fc                Set_Status_Out
                0x000000000800821c                SetEPDoubleBuff
                0x000000000800823c                ClearEPDoubleBuff
                0x0000000008008254                GetTxStallStatus
                0x0000000008008270                GetRxStallStatus
                0x000000000800828c                ClearEP_CTR_RX
                0x00000000080082a4                ClearEP_CTR_TX
                0x00000000080082bc                ToggleDTOG_RX
                0x00000000080082d8                ToggleDTOG_TX
                0x00000000080082f4                ClearDTOG_RX
                0x0000000008008314                ClearDTOG_TX
                0x0000000008008334                SetEPAddress
                0x000000000800834c                GetEPAddress
                0x0000000008008360                SetEPTxAddr
                0x0000000008008380                SetEPRxAddr
                0x00000000080083a0                GetEPTxAddr
                0x00000000080083bc                GetEPRxAddr
                0x00000000080083d8                SetEPTxCount
                0x00000000080083f4                SetEPCountRxReg
                0x000000000800841c                SetEPRxCount
                0x0000000008008460                GetEPTxCount
                0x0000000008008480                GetEPRxCount
                0x00000000080084a0                SetEPDblBuffAddr
                0x00000000080084dc                SetEPDblBuf0Addr
                0x00000000080084fc                SetEPDblBuf1Addr
                0x000000000800851c                GetEPDblBuf0Addr
                0x0000000008008538                GetEPDblBuf1Addr
                0x0000000008008554                SetEPDblBuffCount
                0x000000000800860c                SetEPDblBuf0Count
                0x000000000800866c                SetEPDblBuf1Count
                0x00000000080086cc                GetEPDblBuf0Count
                0x00000000080086ec                GetEPDblBuf1Count
                0x000000000800870c                GetEPDblBufDir
                0x0000000008008750                FreeUserBuffer
                0x0000000008008790                ToWord
                0x0000000008008798                ByteSwap
 .text          0x00000000080087a4     0x1024 ../../src/crypt/aes/aes.o
                0x00000000080089e0                aes_setkey_enc
                0x0000000008008bbc                aes_setkey_dec
                0x0000000008008ce8                aes_crypt_ecb
                0x00000000080096a8                aes_crypt_cbc
                0x000000000800974c                aes_crypt_cfb128
 .text          0x00000000080097c8      0x308 ../../src/crypt/sha1/sha1.o
                0x00000000080097c8                ch
                0x00000000080097d4                maj
                0x00000000080097e0                parity
                0x00000000080097e8                sha1_init
                0x0000000008009820                sha1_nextBlock
                0x000000000800996c                sha1_lastBlock
                0x0000000008009a38                sha1_ctx2hash
                0x0000000008009a48                sha1
 .text          0x0000000008009ad0      0x1b4 ../../src/crypt/sha1/hmac-sha1.o
                0x0000000008009ad0                hmac_sha1_init
                0x0000000008009b48                hmac_sha1_nextBlock
                0x0000000008009b4c                hmac_sha1_lastBlock
                0x0000000008009b8c                hmac_sha1_final
                0x0000000008009bb0                hmac_sha1
 .text          0x0000000008009c84      0x5d0 ../../src/hotp/hotp.o
                0x0000000008009c84                endian_swap
                0x0000000008009c90                dynamic_truncate
                0x0000000008009cb4                crc
                0x0000000008009cd4                write_data_to_flash
                0x0000000008009d04                get_hotp_value
                0x0000000008009d78                get_counter_value
                0x0000000008009d9c                get_time_value
                0x0000000008009e14                set_time_value
                0x0000000008009e88                set_counter_value
                0x0000000008009ecc                increment_counter_page
                0x0000000008009fc8                get_code_from_hotp_slot
                0x000000000800a048                backup_data
                0x000000000800a08c                erase_counter
                0x000000000800a0ac                write_to_slot
                0x000000000800a15c                check_backups
                0x000000000800a1c4                get_hotp_slot_config
                0x000000000800a1dc                get_totp_slot_config
                0x000000000800a1f8                get_code_from_totp_slot
 .text          0x000000000800a254      0x250 ../../src/keyboard/keyboard.o
                0x000000000800a288                sendChar
                0x000000000800a304                sendEnter
                0x000000000800a33c                sendKeys
                0x000000000800a34c                sendNumber
                0x000000000800a3d4                sendNumberN
                0x000000000800a450                sendString
                0x000000000800a46c                sendTab
 *fill*         0x000000000800a4a4        0x4 
 .text          0x000000000800a4a8      0xbd0 ../../src/keyboard/report_protocol.o
                0x000000000800a4a8                cmd_get_status
                0x000000000800a4e8                cmd_get_password_retry_count
                0x000000000800a4f8                cmd_get_user_password_retry_count
                0x000000000800a508                cmd_write_to_slot
                0x000000000800a5dc                cmd_read_slot_name
                0x000000000800a654                cmd_read_slot
                0x000000000800a764                cmd_get_code
                0x000000000800a808                cmd_write_config
                0x000000000800a844                cmd_erase_slot
                0x000000000800a8b4                cmd_first_authenticate
                0x000000000800a928                cmd_user_authenticate
                0x000000000800a99c                cmd_change_user_pin
                0x000000000800aa14                cmd_change_admin_pin
                0x000000000800aa90                cmd_authorize
                0x000000000800aad8                cmd_user_authorize
                0x000000000800ab20                cmd_factory_reset
                0x000000000800ab60                cmd_set_time
                0x000000000800abdc                cmd_getPasswordSafeStatus
                0x000000000800ac14                cmd_getPasswordSafeSlotName
                0x000000000800ac30                cmd_getPasswordSafeSlotPassword
                0x000000000800ac4c                cmd_getPasswordSafeSlotLoginName
                0x000000000800ac68                cmd_setPasswordSafeSetSlotData_1
                0x000000000800ac88                cmd_setPasswordSafeSetSlotData_2
                0x000000000800aca4                cmd_getPasswordSafeEraseSlot
                0x000000000800acbc                cmd_getPasswordSafeEnable
                0x000000000800accc                cmd_getPasswordSafeInitKey
                0x000000000800ace4                cmd_getPasswordSafeSendData
                0x000000000800ad00                cmd_detectSmartCardAES
                0x000000000800ad58                cmd_newAesKey
                0x000000000800ad70                cmd_getProDebug
                0x000000000800ad94                parse_report
                0x000000000800b074                cmd_lockDevice
 .text          0x000000000800b078       0x24 ../../src/usb/usb_endp.o
                0x000000000800b078                EP1_IN_Callback
                0x000000000800b07c                EP2_OUT_Callback
                0x000000000800b080                EP2_IN_Callback
                0x000000000800b084                XEP3_IN_Callback
                0x000000000800b090                EP4_IN_Callback
 .text          0x000000000800b09c       0xc8 ../../src/usb/usb_bot.o
                0x000000000800b09c                Mass_Storage_In
                0x000000000800b0a0                Mass_Storage_Out
                0x000000000800b0a4                CBW_Decode
                0x000000000800b0a8                Transfer_Data_Request
                0x000000000800b0e0                Set_CSW
                0x000000000800b124                Bot_Abort
 .text          0x000000000800b164      0x168 ../../src/usb/usb_pwr.o
                0x000000000800b164                PowerOn
                0x000000000800b194                PowerOff
                0x000000000800b1b8                Suspend
                0x000000000800b1d8                Resume_Init
                0x000000000800b1f8                Resume
                0x000000000800b2b0                USB_Start
 .text          0x000000000800b2cc       0xe4 ../../src/usb/usb_istr.o
                0x000000000800b2cc                USB_Istr
 .text          0x000000000800b3b0      0x480 ../../src/pwd-safe/FlashStorage.o
                0x000000000800b3b0                WriteDebug
                0x000000000800b404                GetDebug
                0x000000000800b440                WriteAESStorageKeyToUserPage
                0x000000000800b494                ReadAESStorageKeyToUserPage
                0x000000000800b4b8                WriteStickConfigurationToUserPage
                0x000000000800b50c                ReadStickConfigurationFromUserPage
                0x000000000800b528                InitStickConfigurationToUserPage_u8
                0x000000000800b55c                SetSdCardNotFilledWithRandomCharsToFlash
                0x000000000800b588                SetStickKeysNotInitatedToFlash
                0x000000000800b5b0                ClearStickKeysNotInitatedToFlash
                0x000000000800b5d8                WriteXorPatternToFlash
                0x000000000800b648                ReadXorPatternFromFlash
                0x000000000800b678                WritePasswordSafeKey
                0x000000000800b6e8                ReadPasswordSafeKey
                0x000000000800b718                EraseLocalFlashKeyValues_u32
 .text          0x000000000800b830      0x244 ../../src/pwd-safe/HandleAesStorageKey.o
                0x000000000800b830                BuildNewAesStorageKey_u32
                0x000000000800b89c                BuildNewAesMasterKey_u32
                0x000000000800b8f8                BuildNewXorPattern_u32
                0x000000000800b930                XorAesKey_u32
                0x000000000800b954                BuildStorageKeys_u32
                0x000000000800b9a0                DecryptKeyViaSmartcard_u32
                0x000000000800b9b8                GetStorageKey_u32
                0x000000000800b9dc                CheckStorageKey_u8
                0x000000000800b9f4                StartupCheck_u8
                0x000000000800ba20                HighLevelTests
 .text          0x000000000800ba74      0x5a4 ../../src/pwd-safe/password_safe.o
                0x000000000800bb18                PWS_WriteSlot
                0x000000000800bbd0                PWS_EraseSlot
                0x000000000800bc94                PWS_ReadSlot
                0x000000000800bca0                PWS_GetAllSlotStatus
                0x000000000800bcec                PWS_GetSlotName
                0x000000000800bd50                PWS_GetSlotPassword
                0x000000000800bdb0                PWS_GetSlotLoginName
                0x000000000800bdf8                PWS_WriteSlotData_1
                0x000000000800be78                PWS_WriteSlotData_2
                0x000000000800beac                BuildPasswordSafeKey_u32
                0x000000000800bef0                PWS_DecryptedPasswordSafeKey
                0x000000000800bf04                PWS_EnableAccess
                0x000000000800bf38                PWS_DisableKey
                0x000000000800bf68                PWS_InitKey
                0x000000000800bf88                PWS_CheckPasswordSafeKey_u8
                0x000000000800bfa0                PWS_GetDecryptedPasswordSafeKey
                0x000000000800bfbc                PWS_SendData
 .text          0x000000000800c018        0x0 /usr/lib/gcc/arm-none-eabi/4.8/../../../arm-none-eabi/lib/armv7-m/libc.a(lib_a-memcmp.o)
 .text          0x000000000800c018       0xec /usr/lib/gcc/arm-none-eabi/4.8/../../../arm-none-eabi/lib/armv7-m/libc.a(lib_a-memcpy.o)
                0x000000000800c018                memcpy
 .text          0x000000000800c104        0x0 /usr/lib/gcc/arm-none-eabi/4.8/../../../arm-none-eabi/lib/armv7-m/libc.a(lib_a-memmove.o)
 .text          0x000000000800c104        0x0 /usr/lib/gcc/arm-none-eabi/4.8/../../../arm-none-eabi/lib/armv7-m/libc.a(lib_a-memset.o)
 .text          0x000000000800c104        0x0 /usr/lib/gcc/arm-none-eabi/4.8/../../../arm-none-eabi/lib/armv7-m/libc.a(lib_a-rand.o)
 .text          0x000000000800c104       0x1c /usr/lib/gcc/arm-none-eabi/4.8/../../../arm-none-eabi/lib/armv7-m/libc.a(lib_a-setjmp.o)
                0x000000000800c104                setjmp
                0x000000000800c110                longjmp
 .text          0x000000000800c120        0x0 /usr/lib/gcc/arm-none-eabi/4.8/../../../arm-none-eabi/lib/armv7-m/libc.a(lib_a-strcpy.o)
 .text          0x000000000800c120        0x0 /usr/lib/gcc/arm-none-eabi/4.8/../../../arm-none-eabi/lib/armv7-m/libc.a(lib_a-strlen.o)
 .text          0x000000000800c120        0x0 /usr/lib/gcc/arm-none-eabi/4.8/../../../arm-none-eabi/lib/armv7-m/libc.a(lib_a-impure.o)
 .text          0x000000000800c120       0x2c /usr/lib/gcc/arm-none-eabi/4.8/armv7-m/libgcc.a(_aeabi_uldivmod.o)
                0x000000000800c120                __aeabi_uldivmod
 .text          0x000000000800c14c       0x60 /usr/lib/gcc/arm-none-eabi/4.8/armv7-m/libgcc.a(bpabi.o)
                0x000000000800c14c                __gnu_ldivmod_helper
                0x000000000800c17c                __gnu_uldivmod_helper
 .text          0x000000000800c1ac        0x4 /usr/lib/gcc/arm-none-eabi/4.8/armv7-m/libgcc.a(_dvmd_tls.o)
                0x000000000800c1ac                __aeabi_ldiv0
                0x000000000800c1ac                __aeabi_idiv0
 .text          0x000000000800c1b0      0x2a0 /usr/lib/gcc/arm-none-eabi/4.8/armv7-m/libgcc.a(_divdi3.o)
                0x000000000800c1b0                __divdi3
 .text          0x000000000800c450      0x290 /usr/lib/gcc/arm-none-eabi/4.8/armv7-m/libgcc.a(_udivdi3.o)
                0x000000000800c450                __udivdi3
 *(.text.*)
 .text.startup  0x000000000800c6e0      0x204 ../../src/main.o
                0x000000000800c6e0                main
 .text.memcmp   0x000000000800c8e4       0x68 /usr/lib/gcc/arm-none-eabi/4.8/../../../arm-none-eabi/lib/armv7-m/libc.a(lib_a-memcmp.o)
                0x000000000800c8e4                memcmp
 .text.memmove  0x000000000800c94c       0xcc /usr/lib/gcc/arm-none-eabi/4.8/../../../arm-none-eabi/lib/armv7-m/libc.a(lib_a-memmove.o)
                0x000000000800c94c                memmove
 .text.memset   0x000000000800ca18       0x94 /usr/lib/gcc/arm-none-eabi/4.8/../../../arm-none-eabi/lib/armv7-m/libc.a(lib_a-memset.o)
                0x000000000800ca18                memset
 .text.srand    0x000000000800caac       0x18 /usr/lib/gcc/arm-none-eabi/4.8/../../../arm-none-eabi/lib/armv7-m/libc.a(lib_a-rand.o)
                0x000000000800caac                srand
 .text.rand     0x000000000800cac4       0x48 /usr/lib/gcc/arm-none-eabi/4.8/../../../arm-none-eabi/lib/armv7-m/libc.a(lib_a-rand.o)
                0x000000000800cac4                rand
 .text.strcpy   0x000000000800cb0c       0xbc /usr/lib/gcc/arm-none-eabi/4.8/../../../arm-none-eabi/lib/armv7-m/libc.a(lib_a-strcpy.o)
                0x000000000800cb0c                strcpy
 .text.strlen   0x000000000800cbc8       0x5c /usr/lib/gcc/arm-none-eabi/4.8/../../../arm-none-eabi/lib/armv7-m/libc.a(lib_a-strlen.o)
                0x000000000800cbc8                strlen
 *(.rodata)
 .rodata        0x000000000800cc24       0x80 ../../src/ccid/Ifd_protocol.o
                0x000000000800cc24                Dmul64vsDI
                0x000000000800cc64                FvsFI
 .rodata        0x000000000800cca4       0xa0 ../../src/ccid/CcidLocalAccess.o
 .rodata        0x000000000800cd44       0x98 ../../src/ccid/smartcard/smartcard.o
                0x000000000800cdc4                CHV1
                0x000000000800cdcc                IMSI
                0x000000000800cdd0                ICCID
                0x000000000800cdd4                GSMDir
                0x000000000800cdd8                MasterRoot
 .rodata        0x000000000800cddc      0x140 ../../src/ccid/CCIDHID_USB/CCIDHID_usb_desc.o
                0x000000000800cddc                CCID_StringInterface
                0x000000000800cdec                CCID_StringProduct
                0x000000000800ce10                CCID_StringVendor
                0x000000000800ce44                CCID_StringLangID
                0x000000000800ce48                Keyboard_ReportDescriptor
                0x000000000800ce90                CCID_ConfigDescriptor
                0x000000000800cf08                CCID_DeviceDescriptor
 .rodata        0x000000000800cf1c       0x9c ../../src/sd-disk/sd-usb/usb_desc.o
                0x000000000800cf1c                MASS_StringInterface
                0x000000000800cf34                MASS_StringProduct
                0x000000000800cf6c                MASS_StringVendor
                0x000000000800cf80                MASS_StringLangID
                0x000000000800cf84                MASS_ConfigDescriptor
                0x000000000800cfa4                MASS_DeviceDescriptor
 .rodata        0x000000000800cfb8       0x14 ../../src/stm/Libraries/CMSIS/Core/CM3/system_stm32f10x.o
                0x000000000800cfb8                SystemFrequency_APB2Clk
                0x000000000800cfbc                SystemFrequency_APB1Clk
                0x000000000800cfc0                SystemFrequency_AHBClk
                0x000000000800cfc4                SystemFrequency_SysClk
                0x000000000800cfc8                SystemFrequency
 .rodata        0x000000000800cfcc        0x8 ../../src/stm/Libraries/STM32F10x_StdPeriph_Driver/src/stm32f10x_can.o
 .rodata        0x000000000800cfd4       0x20 ../../src/crypt/sha1/sha1.o
 *(.rodata*)
 .rodata.str1.4
                0x000000000800cff4       0x13 ../../src/ccid/Ifd_protocol.o
                                         0x14 (size before relaxing)
 *fill*         0x000000000800d007        0x1 
 .rodata.str1.4
                0x000000000800d008        0x7 ../../src/ccid/CcidLocalAccess.o
                                          0x8 (size before relaxing)
 *fill*         0x000000000800d00f        0x1 
 .rodata.str1.4
                0x000000000800d010        0x9 ../../src/pwd-safe/HandleAesStorageKey.o
                                          0xc (size before relaxing)
 *fill*         0x000000000800d019        0x3 
 .rodata.str1.4
                0x000000000800d01c        0x4 /usr/lib/gcc/arm-none-eabi/4.8/../../../arm-none-eabi/lib/armv7-m/libc.a(lib_a-impure.o)
 .rodata._global_impure_ptr
                0x000000000800d020        0x4 /usr/lib/gcc/arm-none-eabi/4.8/../../../arm-none-eabi/lib/armv7-m/libc.a(lib_a-impure.o)
                0x000000000800d020                _global_impure_ptr
 *(.glue_7)
 .glue_7        0x000000000800d024        0x0 linker stubs
 *(.glue_7t)
 .glue_7t       0x000000000800d024        0x0 linker stubs
                0x000000000800d024                . = ALIGN (0x4)
                0x000000000800d024                _etext = .
                0x000000000800d024                _sidata = _etext

.vfp11_veneer   0x000000000800d024        0x0
 .vfp11_veneer  0x000000000800d024        0x0 linker stubs

.v4_bx          0x000000000800d024        0x0
 .v4_bx         0x000000000800d024        0x0 linker stubs

.iplt           0x000000000800d024        0x0
 .iplt          0x000000000800d024        0x0 ../../src/main.o

.rel.dyn        0x000000000800d024        0x0
 .rel.iplt      0x000000000800d024        0x0 ../../src/main.o

.data           0x0000000020000000      0x6fc load address 0x000000000800d024
                0x0000000020000000                . = ALIGN (0x4)
                0x0000000020000000                _sdata = .
 *(.data)
 .data          0x0000000020000000        0x8 ../../src/main.o
                0x0000000020000000                nFlagSendSMCardInserted
                0x0000000020000004                nGlobalStickState
 .data          0x0000000020000008        0x0 ../../src/hw_config.o
 .data          0x0000000020000008        0x0 ../../src/test_code.o
 .data          0x0000000020000008        0x0 ../../src/tools.o
 .data          0x0000000020000008        0x0 ../../src/utils/memory_ops.o
 .data          0x0000000020000008        0x0 ../../src/ccid/Ccid_usb.o
 .data          0x0000000020000008        0x0 ../../src/ccid/Ifd_protocol.o
 .data          0x0000000020000008        0x0 ../../src/ccid/Crd.o
 .data          0x0000000020000008        0x0 ../../src/ccid/Ifd_ccid.o
 .data          0x0000000020000008        0x0 ../../src/ccid/CcidLocalAccess.o
 .data          0x0000000020000008        0x8 ../../src/ccid/smartcard/smartcard.o
 .data          0x0000000020000010       0xa0 ../../src/ccid/CCIDHID_USB/CCIDHID_usb_prop.o
                0x0000000020000010                Keyboard_Report_Descriptor
                0x0000000020000018                Keyboard_Hid_Descriptor
                0x0000000020000020                CCID_String_Descriptor
                0x0000000020000048                CCID_Config_Descriptor
                0x0000000020000050                CCID_Device_Descriptor
                0x0000000020000058                CCID_User_Standard_Requests
                0x000000002000007c                CCID_Device_Property
                0x00000000200000ac                CCID_Device_Table
 .data          0x00000000200000b0       0x34 ../../src/ccid/CCIDHID_USB/CCIDHID_usb_desc.o
                0x00000000200000b0                CCID_StringSerial
 .data          0x00000000200000e4       0x34 ../../src/sd-disk/sd-usb/usb_desc.o
                0x00000000200000e4                MASS_StringSerial
 .data          0x0000000020000118       0xb8 ../../src/sd-disk/sd-usb/usb_prop.o
                0x0000000020000118                Device_Property
                0x000000002000011c                Device_Descriptor
                0x0000000020000120                Config_Descriptor
                0x0000000020000124                String_Descriptor
                0x0000000020000138                User_Standard_Requests
                0x000000002000013c                Device_Table
                0x0000000020000140                MASS_String_Descriptor
                0x0000000020000168                MASS_Config_Descriptor
                0x0000000020000170                MASS_Device_Descriptor
                0x0000000020000178                MASS_User_Standard_Requests
                0x000000002000019c                MASS_Device_Property
                0x00000000200001cc                MASS_Device_Table
 .data          0x00000000200001d0        0x0 ../../src/stm/stm32f10x_systick.o
 .data          0x00000000200001d0        0x4 ../../src/stm/stm32f10x_it.o
                0x00000000200001d0                TimeCounter
 .data          0x00000000200001d4        0x0 ../../src/stm/Libraries/CMSIS/Core/CM3/core_cm3.o
 .data          0x00000000200001d4        0x0 ../../src/stm/Libraries/CMSIS/Core/CM3/system_stm32f10x.o
 .data          0x00000000200001d4        0x0 ../../src/stm/Libraries/CMSIS/Core/CM3/startup/gcc/startup_stm32f10x_hd.o
 .data          0x00000000200001d4        0x0 ../../src/stm/Libraries/STM32F10x_StdPeriph_Driver/src/misc.o
 .data          0x00000000200001d4        0x0 ../../src/stm/Libraries/STM32F10x_StdPeriph_Driver/src/stm32f10x_adc.o
 .data          0x00000000200001d4        0x0 ../../src/stm/Libraries/STM32F10x_StdPeriph_Driver/src/stm32f10x_bkp.o
 .data          0x00000000200001d4        0x0 ../../src/stm/Libraries/STM32F10x_StdPeriph_Driver/src/stm32f10x_can.o
 .data          0x00000000200001d4        0x0 ../../src/stm/Libraries/STM32F10x_StdPeriph_Driver/src/stm32f10x_crc.o
 .data          0x00000000200001d4        0x0 ../../src/stm/Libraries/STM32F10x_StdPeriph_Driver/src/stm32f10x_dac.o
 .data          0x00000000200001d4        0x0 ../../src/stm/Libraries/STM32F10x_StdPeriph_Driver/src/stm32f10x_dbgmcu.o
 .data          0x00000000200001d4        0x0 ../../src/stm/Libraries/STM32F10x_StdPeriph_Driver/src/stm32f10x_dma.o
 .data          0x00000000200001d4        0x0 ../../src/stm/Libraries/STM32F10x_StdPeriph_Driver/src/stm32f10x_exti.o
 .data          0x00000000200001d4        0x0 ../../src/stm/Libraries/STM32F10x_StdPeriph_Driver/src/stm32f10x_flash.o
 .data          0x00000000200001d4        0x0 ../../src/stm/Libraries/STM32F10x_StdPeriph_Driver/src/stm32f10x_fsmc.o
 .data          0x00000000200001d4        0x0 ../../src/stm/Libraries/STM32F10x_StdPeriph_Driver/src/stm32f10x_gpio.o
 .data          0x00000000200001d4        0x0 ../../src/stm/Libraries/STM32F10x_StdPeriph_Driver/src/stm32f10x_i2c.o
 .data          0x00000000200001d4        0x0 ../../src/stm/Libraries/STM32F10x_StdPeriph_Driver/src/stm32f10x_iwdg.o
 .data          0x00000000200001d4        0x0 ../../src/stm/Libraries/STM32F10x_StdPeriph_Driver/src/stm32f10x_pwr.o
 .data          0x00000000200001d4       0x14 ../../src/stm/Libraries/STM32F10x_StdPeriph_Driver/src/stm32f10x_rcc.o
 .data          0x00000000200001e8        0x0 ../../src/stm/Libraries/STM32F10x_StdPeriph_Driver/src/stm32f10x_rtc.o
 .data          0x00000000200001e8        0x0 ../../src/stm/Libraries/STM32F10x_StdPeriph_Driver/src/stm32f10x_sdio.o
 .data          0x00000000200001e8        0x0 ../../src/stm/Libraries/STM32F10x_StdPeriph_Driver/src/stm32f10x_spi.o
 .data          0x00000000200001e8        0x0 ../../src/stm/Libraries/STM32F10x_StdPeriph_Driver/src/stm32f10x_tim.o
 .data          0x00000000200001e8        0x0 ../../src/stm/Libraries/STM32F10x_StdPeriph_Driver/src/stm32f10x_usart.o
 .data          0x00000000200001e8        0x0 ../../src/stm/Libraries/STM32F10x_StdPeriph_Driver/src/stm32f10x_wwdg.o
 .data          0x00000000200001e8        0x0 ../../src/stm/Libraries/STM32_USB-FS-Device_Driver/src/usb_core.o
 .data          0x00000000200001e8        0x0 ../../src/stm/Libraries/STM32_USB-FS-Device_Driver/src/usb_init.o
 .data          0x00000000200001e8        0x0 ../../src/stm/Libraries/STM32_USB-FS-Device_Driver/src/usb_int.o
 .data          0x00000000200001e8        0x0 ../../src/stm/Libraries/STM32_USB-FS-Device_Driver/src/usb_mem.o
 .data          0x00000000200001e8        0x0 ../../src/stm/Libraries/STM32_USB-FS-Device_Driver/src/usb_regs.o
 .data          0x00000000200001e8        0x0 ../../src/crypt/aes/aes.o
 .data          0x00000000200001e8        0x0 ../../src/crypt/sha1/sha1.o
 .data          0x00000000200001e8        0x0 ../../src/crypt/sha1/hmac-sha1.o
 .data          0x00000000200001e8       0x9c ../../src/hotp/hotp.o
                0x00000000200001e8                hotp_slots
                0x00000000200001f4                hotp_slot_counters
                0x0000000020000200                totp_slots
                0x000000002000023c                totp_slot_offsets
                0x0000000020000278                hotp_slot_offsets
 .data          0x0000000020000284        0x1 ../../src/keyboard/keyboard.o
                0x0000000020000284                PrevXferComplete
 *fill*         0x0000000020000285        0x3 
 .data          0x0000000020000288        0x8 ../../src/keyboard/report_protocol.o
                0x0000000020000288                authorized_crc
                0x000000002000028c                authorized_user_crc
 .data          0x0000000020000290        0x0 ../../src/usb/usb_endp.o
 .data          0x0000000020000290        0x0 ../../src/usb/usb_bot.o
 .data          0x0000000020000290        0x1 ../../src/usb/usb_pwr.o
                0x0000000020000290                fSuspendEnabled
 *fill*         0x0000000020000291        0x3 
 .data          0x0000000020000294       0x38 ../../src/usb/usb_istr.o
                0x0000000020000294                pEpInt_OUT
                0x00000000200002b0                pEpInt_IN
 .data          0x00000000200002cc        0x0 ../../src/pwd-safe/FlashStorage.o
 .data          0x00000000200002cc        0x0 ../../src/pwd-safe/HandleAesStorageKey.o
 .data          0x00000000200002cc        0x0 ../../src/pwd-safe/password_safe.o
 .data          0x00000000200002cc        0x0 /usr/lib/gcc/arm-none-eabi/4.8/../../../arm-none-eabi/lib/armv7-m/libc.a(lib_a-memcmp.o)
 .data          0x00000000200002cc        0x0 /usr/lib/gcc/arm-none-eabi/4.8/../../../arm-none-eabi/lib/armv7-m/libc.a(lib_a-memcpy.o)
 .data          0x00000000200002cc        0x0 /usr/lib/gcc/arm-none-eabi/4.8/../../../arm-none-eabi/lib/armv7-m/libc.a(lib_a-memmove.o)
 .data          0x00000000200002cc        0x0 /usr/lib/gcc/arm-none-eabi/4.8/../../../arm-none-eabi/lib/armv7-m/libc.a(lib_a-memset.o)
 .data          0x00000000200002cc        0x0 /usr/lib/gcc/arm-none-eabi/4.8/../../../arm-none-eabi/lib/armv7-m/libc.a(lib_a-rand.o)
 .data          0x00000000200002cc        0x0 /usr/lib/gcc/arm-none-eabi/4.8/../../../arm-none-eabi/lib/armv7-m/libc.a(lib_a-setjmp.o)
 .data          0x00000000200002cc        0x0 /usr/lib/gcc/arm-none-eabi/4.8/../../../arm-none-eabi/lib/armv7-m/libc.a(lib_a-strcpy.o)
 .data          0x00000000200002cc        0x0 /usr/lib/gcc/arm-none-eabi/4.8/../../../arm-none-eabi/lib/armv7-m/libc.a(lib_a-strlen.o)
 .data          0x00000000200002cc        0x0 /usr/lib/gcc/arm-none-eabi/4.8/../../../arm-none-eabi/lib/armv7-m/libc.a(lib_a-impure.o)
 .data          0x00000000200002cc        0x0 /usr/lib/gcc/arm-none-eabi/4.8/armv7-m/libgcc.a(_aeabi_uldivmod.o)
 .data          0x00000000200002cc        0x0 /usr/lib/gcc/arm-none-eabi/4.8/armv7-m/libgcc.a(bpabi.o)
 .data          0x00000000200002cc        0x0 /usr/lib/gcc/arm-none-eabi/4.8/armv7-m/libgcc.a(_dvmd_tls.o)
 .data          0x00000000200002cc        0x0 /usr/lib/gcc/arm-none-eabi/4.8/armv7-m/libgcc.a(_divdi3.o)
 .data          0x00000000200002cc        0x0 /usr/lib/gcc/arm-none-eabi/4.8/armv7-m/libgcc.a(_udivdi3.o)
 *(.data.*)
 *fill*         0x00000000200002cc        0x4 
 .data.impure_data
                0x00000000200002d0      0x428 /usr/lib/gcc/arm-none-eabi/4.8/../../../arm-none-eabi/lib/armv7-m/libc.a(lib_a-impure.o)
 .data._impure_ptr
                0x00000000200006f8        0x4 /usr/lib/gcc/arm-none-eabi/4.8/../../../arm-none-eabi/lib/armv7-m/libc.a(lib_a-impure.o)
                0x00000000200006f8                _impure_ptr
                0x00000000200006fc                . = ALIGN (0x4)
                0x00000000200006fc                _edata = .

.igot.plt       0x00000000200006fc        0x0 load address 0x000000000800d720
 .igot.plt      0x00000000200006fc        0x0 ../../src/main.o

.bss            0x0000000020000700     0x2f18 load address 0x000000000800d728
                0x0000000020000700                . = ALIGN (0x4)
                0x0000000020000700                _sbss = .
 *(.bss)
 .bss           0x0000000020000700       0x10 ../../src/main.o
                0x0000000020000704                device_status
                0x0000000020000708                currentTime
 .bss           0x0000000020000710       0x10 ../../src/hw_config.o
                0x0000000020000710                blinkOATHLEDTimes
                0x0000000020000714                cardSerial
                0x0000000020000718                lastOATHBlinkTime
 .bss           0x0000000020000720        0x0 ../../src/test_code.o
 .bss           0x0000000020000720        0x0 ../../src/tools.o
 .bss           0x0000000020000720        0x0 ../../src/utils/memory_ops.o
 .bss           0x0000000020000720       0x14 ../../src/ccid/Ccid_usb.o
                0x0000000020000730                SlotStabilizationDelay
 .bss           0x0000000020000734       0x18 ../../src/ccid/Ifd_protocol.o
 .bss           0x000000002000074c        0x0 ../../src/ccid/Crd.o
 .bss           0x000000002000074c        0x0 ../../src/ccid/Ifd_ccid.o
 .bss           0x000000002000074c      0x20c ../../src/ccid/CcidLocalAccess.o
 .bss           0x0000000020000958       0x20 ../../src/ccid/smartcard/smartcard.o
                0x0000000020000959                SC_ATR_Length
                0x000000002000095c                IMSI_Content
                0x0000000020000968                ICCID_Content
                0x0000000020000974                CHV1Status
 .bss           0x0000000020000978       0x38 ../../src/ccid/CCIDHID_USB/CCIDHID_usb_prop.o
                0x0000000020000978                Request
                0x0000000020000979                RequestType
                0x000000002000097a                lastLEDState
                0x0000000020000980                lastNumLockChange
                0x0000000020000988                numLockClicked
                0x0000000020000990                lastCapsLockChange
                0x0000000020000998                capsLockClicked
                0x00000000200009a0                lastScrollLockChange
                0x00000000200009a8                scrollLockClicked
 .bss           0x00000000200009b0        0x0 ../../src/ccid/CCIDHID_USB/CCIDHID_usb_desc.o
 .bss           0x00000000200009b0        0x0 ../../src/sd-disk/sd-usb/usb_desc.o
 .bss           0x00000000200009b0        0x4 ../../src/sd-disk/sd-usb/usb_prop.o
                0x00000000200009b0                Max_Lun
 .bss           0x00000000200009b4        0x0 ../../src/stm/stm32f10x_systick.o
 .bss           0x00000000200009b4        0x4 ../../src/stm/stm32f10x_it.o
                0x00000000200009b4                TimingDelay
 .bss           0x00000000200009b8        0x0 ../../src/stm/Libraries/CMSIS/Core/CM3/core_cm3.o
 .bss           0x00000000200009b8        0x0 ../../src/stm/Libraries/CMSIS/Core/CM3/system_stm32f10x.o
 .bss           0x00000000200009b8        0x0 ../../src/stm/Libraries/CMSIS/Core/CM3/startup/gcc/startup_stm32f10x_hd.o
 .bss           0x00000000200009b8        0x0 ../../src/stm/Libraries/STM32F10x_StdPeriph_Driver/src/misc.o
 .bss           0x00000000200009b8        0x0 ../../src/stm/Libraries/STM32F10x_StdPeriph_Driver/src/stm32f10x_adc.o
 .bss           0x00000000200009b8        0x0 ../../src/stm/Libraries/STM32F10x_StdPeriph_Driver/src/stm32f10x_bkp.o
 .bss           0x00000000200009b8        0x0 ../../src/stm/Libraries/STM32F10x_StdPeriph_Driver/src/stm32f10x_can.o
 .bss           0x00000000200009b8        0x0 ../../src/stm/Libraries/STM32F10x_StdPeriph_Driver/src/stm32f10x_crc.o
 .bss           0x00000000200009b8        0x0 ../../src/stm/Libraries/STM32F10x_StdPeriph_Driver/src/stm32f10x_dac.o
 .bss           0x00000000200009b8        0x0 ../../src/stm/Libraries/STM32F10x_StdPeriph_Driver/src/stm32f10x_dbgmcu.o
 .bss           0x00000000200009b8        0x0 ../../src/stm/Libraries/STM32F10x_StdPeriph_Driver/src/stm32f10x_dma.o
 .bss           0x00000000200009b8        0x0 ../../src/stm/Libraries/STM32F10x_StdPeriph_Driver/src/stm32f10x_exti.o
 .bss           0x00000000200009b8        0x0 ../../src/stm/Libraries/STM32F10x_StdPeriph_Driver/src/stm32f10x_flash.o
 .bss           0x00000000200009b8        0x0 ../../src/stm/Libraries/STM32F10x_StdPeriph_Driver/src/stm32f10x_fsmc.o
 .bss           0x00000000200009b8        0x0 ../../src/stm/Libraries/STM32F10x_StdPeriph_Driver/src/stm32f10x_gpio.o
 .bss           0x00000000200009b8        0x0 ../../src/stm/Libraries/STM32F10x_StdPeriph_Driver/src/stm32f10x_i2c.o
 .bss           0x00000000200009b8        0x0 ../../src/stm/Libraries/STM32F10x_StdPeriph_Driver/src/stm32f10x_iwdg.o
 .bss           0x00000000200009b8        0x0 ../../src/stm/Libraries/STM32F10x_StdPeriph_Driver/src/stm32f10x_pwr.o
 .bss           0x00000000200009b8        0x0 ../../src/stm/Libraries/STM32F10x_StdPeriph_Driver/src/stm32f10x_rcc.o
 .bss           0x00000000200009b8        0x0 ../../src/stm/Libraries/STM32F10x_StdPeriph_Driver/src/stm32f10x_rtc.o
 .bss           0x00000000200009b8        0x0 ../../src/stm/Libraries/STM32F10x_StdPeriph_Driver/src/stm32f10x_sdio.o
 .bss           0x00000000200009b8        0x0 ../../src/stm/Libraries/STM32F10x_StdPeriph_Driver/src/stm32f10x_spi.o
 .bss           0x00000000200009b8        0x0 ../../src/stm/Libraries/STM32F10x_StdPeriph_Driver/src/stm32f10x_tim.o
 .bss           0x00000000200009b8        0x0 ../../src/stm/Libraries/STM32F10x_StdPeriph_Driver/src/stm32f10x_usart.o
 .bss           0x00000000200009b8        0x0 ../../src/stm/Libraries/STM32F10x_StdPeriph_Driver/src/stm32f10x_wwdg.o
 .bss           0x00000000200009b8        0x1 ../../src/stm/Libraries/STM32_USB-FS-Device_Driver/src/usb_core.o
                0x00000000200009b8                Data_Mul_MaxPacketSize
 .bss           0x00000000200009b9        0x0 ../../src/stm/Libraries/STM32_USB-FS-Device_Driver/src/usb_init.o
 .bss           0x00000000200009b9        0x0 ../../src/stm/Libraries/STM32_USB-FS-Device_Driver/src/usb_int.o
 .bss           0x00000000200009b9        0x0 ../../src/stm/Libraries/STM32_USB-FS-Device_Driver/src/usb_mem.o
 .bss           0x00000000200009b9        0x0 ../../src/stm/Libraries/STM32_USB-FS-Device_Driver/src/usb_regs.o
 *fill*         0x00000000200009b9        0x3 
 .bss           0x00000000200009bc     0x222c ../../src/crypt/aes/aes.o
 .bss           0x0000000020002be8        0x0 ../../src/crypt/sha1/sha1.o
 .bss           0x0000000020002be8        0x0 ../../src/crypt/sha1/hmac-sha1.o
 .bss           0x0000000020002be8        0x0 ../../src/hotp/hotp.o
 .bss           0x0000000020002be8        0x8 ../../src/keyboard/keyboard.o
                0x0000000020002be8                keyboardBuffer
 .bss           0x0000000020002bf0        0x2 ../../src/keyboard/report_protocol.o
                0x0000000020002bf0                tmp_password_set
                0x0000000020002bf1                tmp_user_password_set
 .bss           0x0000000020002bf2        0x0 ../../src/usb/usb_endp.o
 .bss           0x0000000020002bf2        0x0 ../../src/usb/usb_bot.o
 *fill*         0x0000000020002bf2        0x2 
 .bss           0x0000000020002bf4        0x4 ../../src/usb/usb_pwr.o
                0x0000000020002bf4                bDeviceState
 .bss           0x0000000020002bf8        0x1 ../../src/usb/usb_istr.o
                0x0000000020002bf8                bIntPackSOF
 *fill*         0x0000000020002bf9        0x3 
 .bss           0x0000000020002bfc        0x4 ../../src/pwd-safe/FlashStorage.o
                0x0000000020002bfc                debug_len
 .bss           0x0000000020002c00        0x0 ../../src/pwd-safe/HandleAesStorageKey.o
 .bss           0x0000000020002c00       0x24 ../../src/pwd-safe/password_safe.o
 .bss           0x0000000020002c24        0x0 /usr/lib/gcc/arm-none-eabi/4.8/../../../arm-none-eabi/lib/armv7-m/libc.a(lib_a-memcmp.o)
 .bss           0x0000000020002c24        0x0 /usr/lib/gcc/arm-none-eabi/4.8/../../../arm-none-eabi/lib/armv7-m/libc.a(lib_a-memcpy.o)
 .bss           0x0000000020002c24        0x0 /usr/lib/gcc/arm-none-eabi/4.8/../../../arm-none-eabi/lib/armv7-m/libc.a(lib_a-memmove.o)
 .bss           0x0000000020002c24        0x0 /usr/lib/gcc/arm-none-eabi/4.8/../../../arm-none-eabi/lib/armv7-m/libc.a(lib_a-memset.o)
 .bss           0x0000000020002c24        0x0 /usr/lib/gcc/arm-none-eabi/4.8/../../../arm-none-eabi/lib/armv7-m/libc.a(lib_a-rand.o)
 .bss           0x0000000020002c24        0x0 /usr/lib/gcc/arm-none-eabi/4.8/../../../arm-none-eabi/lib/armv7-m/libc.a(lib_a-setjmp.o)
 .bss           0x0000000020002c24        0x0 /usr/lib/gcc/arm-none-eabi/4.8/../../../arm-none-eabi/lib/armv7-m/libc.a(lib_a-strcpy.o)
 .bss           0x0000000020002c24        0x0 /usr/lib/gcc/arm-none-eabi/4.8/../../../arm-none-eabi/lib/armv7-m/libc.a(lib_a-strlen.o)
 .bss           0x0000000020002c24        0x0 /usr/lib/gcc/arm-none-eabi/4.8/../../../arm-none-eabi/lib/armv7-m/libc.a(lib_a-impure.o)
 .bss           0x0000000020002c24        0x0 /usr/lib/gcc/arm-none-eabi/4.8/armv7-m/libgcc.a(_aeabi_uldivmod.o)
 .bss           0x0000000020002c24        0x0 /usr/lib/gcc/arm-none-eabi/4.8/armv7-m/libgcc.a(bpabi.o)
 .bss           0x0000000020002c24        0x0 /usr/lib/gcc/arm-none-eabi/4.8/armv7-m/libgcc.a(_dvmd_tls.o)
 .bss           0x0000000020002c24        0x0 /usr/lib/gcc/arm-none-eabi/4.8/armv7-m/libgcc.a(_divdi3.o)
 .bss           0x0000000020002c24        0x0 /usr/lib/gcc/arm-none-eabi/4.8/armv7-m/libgcc.a(_udivdi3.o)
 *(COMMON)
 *fill*         0x0000000020002c24        0x4 
 COMMON         0x0000000020002c28       0x64 ../../src/main.o
                0x0000000020002c28                current_time
                0x0000000020002c30                jmpRestartUSB
 COMMON         0x0000000020002c8c      0x16a ../../src/ccid/Ccid_usb.o
                0x0000000020002c8c                UsbIntMessageBuffer
                0x0000000020002c90                UsbMessageFlags
                0x0000000020002c94                UsbMessageBuffer
                0x0000000020002df4                AbortSequenceNumber
                0x0000000020002df5                BulkStatus
 *fill*         0x0000000020002df6        0x2 
 COMMON         0x0000000020002df8       0x14 ../../src/ccid/Crd.o
                0x0000000020002df8                InstructionByte
                0x0000000020002df9                CrdFlags
                0x0000000020002dfc                CrdBufferSize
                0x0000000020002e00                ProcedureByte
                0x0000000020002e04                pCrdBuffer
                0x0000000020002e08                CrdNbData
 COMMON         0x0000000020002e0c       0x6e ../../src/ccid/smartcard/smartcard.o
                0x0000000020002e0c                SC_ATR_Table
                0x0000000020002e34                SC_A2R
                0x0000000020002e64                SC_Responce
 *fill*         0x0000000020002e7a        0x2 
 COMMON         0x0000000020002e7c      0x160 ../../src/ccid/CCIDHID_USB/CCIDHID_usb_prop.o
                0x0000000020002e7c                HID_SetReport_Value
                0x0000000020002ebc                ProtocolValue
                0x0000000020002ec0                message
                0x0000000020002f00                CCID_Device_Info
                0x0000000020002f1c                HID_GetReport_Value
                0x0000000020002f5c                HID_GetReport_Value_tmp
                0x0000000020002f9c                HID_SetReport_Value_tmp
 COMMON         0x0000000020002fdc       0x1c ../../src/sd-disk/sd-usb/usb_prop.o
                0x0000000020002fdc                MASS_Device_Info
 COMMON         0x0000000020002ff8        0x2 ../../src/stm/Libraries/STM32_USB-FS-Device_Driver/src/usb_core.o
                0x0000000020002ff8                StatusInfo
 *fill*         0x0000000020002ffa        0x2 
 COMMON         0x0000000020002ffc       0x1a ../../src/stm/Libraries/STM32_USB-FS-Device_Driver/src/usb_init.o
                0x0000000020002ffc                SaveState
                0x0000000020003000                pProperty
                0x0000000020003004                EPindex
                0x0000000020003008                Device_Info
                0x000000002000300c                pUser_Standard_Requests
                0x0000000020003010                pInformation
                0x0000000020003014                wInterrupt_Mask
 COMMON         0x0000000020003016        0x4 ../../src/stm/Libraries/STM32_USB-FS-Device_Driver/src/usb_int.o
                0x0000000020003016                SaveRState
                0x0000000020003018                SaveTState
 *fill*         0x000000002000301a        0x2 
 COMMON         0x000000002000301c      0x3e8 ../../src/hotp/hotp.o
                0x000000002000301c                page_buffer
 COMMON         0x0000000020003404       0x35 ../../src/keyboard/report_protocol.o
                0x0000000020003404                temp_password
                0x0000000020003420                temp_user_password
 *fill*         0x0000000020003439        0x3 
 COMMON         0x000000002000343c       0x7c ../../src/usb/usb_bot.o
                0x000000002000343c                CBW
                0x000000002000345c                Data_Len
                0x000000002000345e                Bot_State
                0x0000000020003460                SCSI_LBA
                0x0000000020003464                CSW
                0x0000000020003474                SCSI_BlkLen
                0x0000000020003478                Bulk_Data_Buff
 COMMON         0x00000000200034b8        0x2 ../../src/usb/usb_pwr.o
                0x00000000200034b8                ResumeS
 COMMON         0x00000000200034ba        0x2 ../../src/usb/usb_istr.o
                0x00000000200034ba                wIstr
 COMMON         0x00000000200034bc      0x11c ../../src/pwd-safe/FlashStorage.o
                0x00000000200034bc                EraseStoreData_au8
                0x00000000200035bc                StickConfiguration_st
 COMMON         0x00000000200035d8       0x40 ../../src/pwd-safe/password_safe.o
                0x00000000200035d8                PWS_BufferSlot_st
                0x0000000020003618                . = ALIGN (0x4)
                0x0000000020003618                _ebss = .
                0x0000000020003618                PROVIDE (end, _ebss)
                0x0000000020003618                PROVIDE (_end, _ebss)

._usrstack      0x0000000020003618      0x100 load address 0x0000000008010640
                0x0000000020003618                . = ALIGN (0x4)
                0x0000000020003618                _susrstack = .
                0x0000000020003718                . = (. + _Minimum_Stack_Size)
 *fill*         0x0000000020003618      0x100 
                0x0000000020003718                . = ALIGN (0x4)
                0x0000000020003718                _eusrstack = .

.b1text
 *(.b1text)
 *(.b1rodata)
 *(.b1rodata*)

.eb0text
 *(.eb0text)
 *(.eb0rodata)
 *(.eb0rodata*)

.eb1text
 *(.eb1text)
 *(.eb1rodata)
 *(.eb1rodata*)

.eb2text
 *(.eb2text)
 *(.eb2rodata)
 *(.eb2rodata*)

.eb3text
 *(.eb3text)
 *(.eb3rodata)
 *(.eb3rodata*)
                0x0000000020003718                __exidx_start = .
                0x0000000020003718                __exidx_end = .

/DISCARD/
 libc.a(*)
 libm.a(*)
 libgcc.a(*)

.stab
 *(.stab)

.stabstr
 *(.stabstr)

.stab.excl
 *(.stab.excl)

.stab.exclstr
 *(.stab.exclstr)

.stab.index
 *(.stab.index)

.stab.indexstr
 *(.stab.indexstr)

.comment        0x0000000000000000       0x52
 *(.comment)
 .comment       0x0000000000000000       0x33 ../../src/main.o
                                         0x34 (size before relaxing)
 .comment       0x0000000000000033       0x34 ../../src/hw_config.o
 .comment       0x0000000000000033       0x34 ../../src/test_code.o
 .comment       0x0000000000000033       0x34 ../../src/tools.o
 .comment       0x0000000000000033       0x34 ../../src/utils/memory_ops.o
 .comment       0x0000000000000033       0x34 ../../src/ccid/Ccid_usb.o
 .comment       0x0000000000000033       0x34 ../../src/ccid/Ifd_protocol.o
 .comment       0x0000000000000033       0x34 ../../src/ccid/Crd.o
 .comment       0x0000000000000033       0x34 ../../src/ccid/Ifd_ccid.o
 .comment       0x0000000000000033       0x34 ../../src/ccid/CcidLocalAccess.o
 .comment       0x0000000000000033       0x34 ../../src/ccid/smartcard/smartcard.o
 .comment       0x0000000000000033       0x34 ../../src/ccid/CCIDHID_USB/CCIDHID_usb_prop.o
 .comment       0x0000000000000033       0x34 ../../src/ccid/CCIDHID_USB/CCIDHID_usb_desc.o
 .comment       0x0000000000000033       0x34 ../../src/sd-disk/sd-usb/usb_desc.o
 .comment       0x0000000000000033       0x34 ../../src/sd-disk/sd-usb/usb_prop.o
 .comment       0x0000000000000033       0x34 ../../src/stm/stm32f10x_systick.o
 .comment       0x0000000000000033       0x34 ../../src/stm/stm32f10x_it.o
 .comment       0x0000000000000033       0x34 ../../src/stm/Libraries/CMSIS/Core/CM3/core_cm3.o
 .comment       0x0000000000000033       0x34 ../../src/stm/Libraries/CMSIS/Core/CM3/system_stm32f10x.o
 .comment       0x0000000000000033       0x34 ../../src/stm/Libraries/CMSIS/Core/CM3/startup/gcc/startup_stm32f10x_hd.o
 .comment       0x0000000000000033       0x34 ../../src/stm/Libraries/STM32F10x_StdPeriph_Driver/src/misc.o
 .comment       0x0000000000000033       0x34 ../../src/stm/Libraries/STM32F10x_StdPeriph_Driver/src/stm32f10x_adc.o
 .comment       0x0000000000000033       0x34 ../../src/stm/Libraries/STM32F10x_StdPeriph_Driver/src/stm32f10x_bkp.o
 .comment       0x0000000000000033       0x34 ../../src/stm/Libraries/STM32F10x_StdPeriph_Driver/src/stm32f10x_can.o
 .comment       0x0000000000000033       0x34 ../../src/stm/Libraries/STM32F10x_StdPeriph_Driver/src/stm32f10x_crc.o
 .comment       0x0000000000000033       0x34 ../../src/stm/Libraries/STM32F10x_StdPeriph_Driver/src/stm32f10x_dac.o
 .comment       0x0000000000000033       0x34 ../../src/stm/Libraries/STM32F10x_StdPeriph_Driver/src/stm32f10x_dbgmcu.o
 .comment       0x0000000000000033       0x34 ../../src/stm/Libraries/STM32F10x_StdPeriph_Driver/src/stm32f10x_dma.o
 .comment       0x0000000000000033       0x34 ../../src/stm/Libraries/STM32F10x_StdPeriph_Driver/src/stm32f10x_exti.o
 .comment       0x0000000000000033       0x34 ../../src/stm/Libraries/STM32F10x_StdPeriph_Driver/src/stm32f10x_flash.o
 .comment       0x0000000000000033       0x34 ../../src/stm/Libraries/STM32F10x_StdPeriph_Driver/src/stm32f10x_fsmc.o
 .comment       0x0000000000000033       0x34 ../../src/stm/Libraries/STM32F10x_StdPeriph_Driver/src/stm32f10x_gpio.o
 .comment       0x0000000000000033       0x34 ../../src/stm/Libraries/STM32F10x_StdPeriph_Driver/src/stm32f10x_i2c.o
 .comment       0x0000000000000033       0x34 ../../src/stm/Libraries/STM32F10x_StdPeriph_Driver/src/stm32f10x_iwdg.o
 .comment       0x0000000000000033       0x34 ../../src/stm/Libraries/STM32F10x_StdPeriph_Driver/src/stm32f10x_pwr.o
 .comment       0x0000000000000033       0x34 ../../src/stm/Libraries/STM32F10x_StdPeriph_Driver/src/stm32f10x_rcc.o
 .comment       0x0000000000000033       0x34 ../../src/stm/Libraries/STM32F10x_StdPeriph_Driver/src/stm32f10x_rtc.o
 .comment       0x0000000000000033       0x34 ../../src/stm/Libraries/STM32F10x_StdPeriph_Driver/src/stm32f10x_sdio.o
 .comment       0x0000000000000033       0x34 ../../src/stm/Libraries/STM32F10x_StdPeriph_Driver/src/stm32f10x_spi.o
 .comment       0x0000000000000033       0x34 ../../src/stm/Libraries/STM32F10x_StdPeriph_Driver/src/stm32f10x_tim.o
 .comment       0x0000000000000033       0x34 ../../src/stm/Libraries/STM32F10x_StdPeriph_Driver/src/stm32f10x_usart.o
 .comment       0x0000000000000033       0x34 ../../src/stm/Libraries/STM32F10x_StdPeriph_Driver/src/stm32f10x_wwdg.o
 .comment       0x0000000000000033       0x34 ../../src/stm/Libraries/STM32_USB-FS-Device_Driver/src/usb_core.o
 .comment       0x0000000000000033       0x34 ../../src/stm/Libraries/STM32_USB-FS-Device_Driver/src/usb_init.o
 .comment       0x0000000000000033       0x34 ../../src/stm/Libraries/STM32_USB-FS-Device_Driver/src/usb_int.o
 .comment       0x0000000000000033       0x34 ../../src/stm/Libraries/STM32_USB-FS-Device_Driver/src/usb_mem.o
 .comment       0x0000000000000033       0x34 ../../src/stm/Libraries/STM32_USB-FS-Device_Driver/src/usb_regs.o
 .comment       0x0000000000000033       0x34 ../../src/crypt/aes/aes.o
 .comment       0x0000000000000033       0x34 ../../src/crypt/sha1/sha1.o
 .comment       0x0000000000000033       0x34 ../../src/crypt/sha1/hmac-sha1.o
 .comment       0x0000000000000033       0x34 ../../src/hotp/hotp.o
 .comment       0x0000000000000033       0x34 ../../src/keyboard/keyboard.o
 .comment       0x0000000000000033       0x34 ../../src/keyboard/report_protocol.o
 .comment       0x0000000000000033       0x34 ../../src/usb/usb_endp.o
 .comment       0x0000000000000033       0x34 ../../src/usb/usb_bot.o
 .comment       0x0000000000000033       0x34 ../../src/usb/usb_pwr.o
 .comment       0x0000000000000033       0x34 ../../src/usb/usb_istr.o
 .comment       0x0000000000000033       0x34 ../../src/pwd-safe/FlashStorage.o
 .comment       0x0000000000000033       0x34 ../../src/pwd-safe/HandleAesStorageKey.o
 .comment       0x0000000000000033       0x34 ../../src/pwd-safe/password_safe.o
 .comment       0x0000000000000033       0x1f /usr/lib/gcc/arm-none-eabi/4.8/../../../arm-none-eabi/lib/armv7-m/libc.a(lib_a-memcmp.o)
                                         0x20 (size before relaxing)
 .comment       0x0000000000000052       0x20 /usr/lib/gcc/arm-none-eabi/4.8/../../../arm-none-eabi/lib/armv7-m/libc.a(lib_a-memmove.o)
 .comment       0x0000000000000052       0x20 /usr/lib/gcc/arm-none-eabi/4.8/../../../arm-none-eabi/lib/armv7-m/libc.a(lib_a-memset.o)
 .comment       0x0000000000000052       0x20 /usr/lib/gcc/arm-none-eabi/4.8/../../../arm-none-eabi/lib/armv7-m/libc.a(lib_a-rand.o)
 .comment       0x0000000000000052       0x20 /usr/lib/gcc/arm-none-eabi/4.8/../../../arm-none-eabi/lib/armv7-m/libc.a(lib_a-strcpy.o)
 .comment       0x0000000000000052       0x20 /usr/lib/gcc/arm-none-eabi/4.8/../../../arm-none-eabi/lib/armv7-m/libc.a(lib_a-strlen.o)
 .comment       0x0000000000000052       0x20 /usr/lib/gcc/arm-none-eabi/4.8/../../../arm-none-eabi/lib/armv7-m/libc.a(lib_a-impure.o)
 .comment       0x0000000000000052       0x34 /usr/lib/gcc/arm-none-eabi/4.8/armv7-m/libgcc.a(bpabi.o)
 .comment       0x0000000000000052       0x34 /usr/lib/gcc/arm-none-eabi/4.8/armv7-m/libgcc.a(_divdi3.o)
 .comment       0x0000000000000052       0x34 /usr/lib/gcc/arm-none-eabi/4.8/armv7-m/libgcc.a(_udivdi3.o)

.ARM.attributes
                0x0000000000000000       0x31
 .ARM.attributes
                0x0000000000000000       0x33 ../../src/main.o
 .ARM.attributes
                0x0000000000000033       0x33 ../../src/hw_config.o
 .ARM.attributes
                0x0000000000000066       0x33 ../../src/test_code.o
 .ARM.attributes
                0x0000000000000099       0x33 ../../src/tools.o
 .ARM.attributes
                0x00000000000000cc       0x33 ../../src/utils/memory_ops.o
 .ARM.attributes
                0x00000000000000ff       0x33 ../../src/ccid/Ccid_usb.o
 .ARM.attributes
                0x0000000000000132       0x33 ../../src/ccid/Ifd_protocol.o
 .ARM.attributes
                0x0000000000000165       0x33 ../../src/ccid/Crd.o
 .ARM.attributes
                0x0000000000000198       0x33 ../../src/ccid/Ifd_ccid.o
 .ARM.attributes
                0x00000000000001cb       0x33 ../../src/ccid/CcidLocalAccess.o
 .ARM.attributes
                0x00000000000001fe       0x33 ../../src/ccid/smartcard/smartcard.o
 .ARM.attributes
                0x0000000000000231       0x33 ../../src/ccid/CCIDHID_USB/CCIDHID_usb_prop.o
 .ARM.attributes
                0x0000000000000264       0x33 ../../src/ccid/CCIDHID_USB/CCIDHID_usb_desc.o
 .ARM.attributes
                0x0000000000000297       0x33 ../../src/sd-disk/sd-usb/usb_desc.o
 .ARM.attributes
                0x00000000000002ca       0x33 ../../src/sd-disk/sd-usb/usb_prop.o
 .ARM.attributes
                0x00000000000002fd       0x33 ../../src/stm/stm32f10x_systick.o
 .ARM.attributes
                0x0000000000000330       0x33 ../../src/stm/stm32f10x_it.o
 .ARM.attributes
                0x0000000000000363       0x33 ../../src/stm/Libraries/CMSIS/Core/CM3/core_cm3.o
 .ARM.attributes
                0x0000000000000396       0x33 ../../src/stm/Libraries/CMSIS/Core/CM3/system_stm32f10x.o
 .ARM.attributes
                0x00000000000003c9       0x33 ../../src/stm/Libraries/CMSIS/Core/CM3/startup/gcc/startup_stm32f10x_hd.o
 .ARM.attributes
                0x00000000000003fc       0x33 ../../src/stm/Libraries/STM32F10x_StdPeriph_Driver/src/misc.o
 .ARM.attributes
                0x000000000000042f       0x33 ../../src/stm/Libraries/STM32F10x_StdPeriph_Driver/src/stm32f10x_adc.o
 .ARM.attributes
                0x0000000000000462       0x33 ../../src/stm/Libraries/STM32F10x_StdPeriph_Driver/src/stm32f10x_bkp.o
 .ARM.attributes
                0x0000000000000495       0x33 ../../src/stm/Libraries/STM32F10x_StdPeriph_Driver/src/stm32f10x_can.o
 .ARM.attributes
                0x00000000000004c8       0x33 ../../src/stm/Libraries/STM32F10x_StdPeriph_Driver/src/stm32f10x_crc.o
 .ARM.attributes
                0x00000000000004fb       0x33 ../../src/stm/Libraries/STM32F10x_StdPeriph_Driver/src/stm32f10x_dac.o
 .ARM.attributes
                0x000000000000052e       0x33 ../../src/stm/Libraries/STM32F10x_StdPeriph_Driver/src/stm32f10x_dbgmcu.o
 .ARM.attributes
                0x0000000000000561       0x33 ../../src/stm/Libraries/STM32F10x_StdPeriph_Driver/src/stm32f10x_dma.o
 .ARM.attributes
                0x0000000000000594       0x33 ../../src/stm/Libraries/STM32F10x_StdPeriph_Driver/src/stm32f10x_exti.o
 .ARM.attributes
                0x00000000000005c7       0x33 ../../src/stm/Libraries/STM32F10x_StdPeriph_Driver/src/stm32f10x_flash.o
 .ARM.attributes
                0x00000000000005fa       0x33 ../../src/stm/Libraries/STM32F10x_StdPeriph_Driver/src/stm32f10x_fsmc.o
 .ARM.attributes
                0x000000000000062d       0x33 ../../src/stm/Libraries/STM32F10x_StdPeriph_Driver/src/stm32f10x_gpio.o
 .ARM.attributes
                0x0000000000000660       0x33 ../../src/stm/Libraries/STM32F10x_StdPeriph_Driver/src/stm32f10x_i2c.o
 .ARM.attributes
                0x0000000000000693       0x33 ../../src/stm/Libraries/STM32F10x_StdPeriph_Driver/src/stm32f10x_iwdg.o
 .ARM.attributes
                0x00000000000006c6       0x33 ../../src/stm/Libraries/STM32F10x_StdPeriph_Driver/src/stm32f10x_pwr.o
 .ARM.attributes
                0x00000000000006f9       0x33 ../../src/stm/Libraries/STM32F10x_StdPeriph_Driver/src/stm32f10x_rcc.o
 .ARM.attributes
                0x000000000000072c       0x33 ../../src/stm/Libraries/STM32F10x_StdPeriph_Driver/src/stm32f10x_rtc.o
 .ARM.attributes
                0x000000000000075f       0x33 ../../src/stm/Libraries/STM32F10x_StdPeriph_Driver/src/stm32f10x_sdio.o
 .ARM.attributes
                0x0000000000000792       0x33 ../../src/stm/Libraries/STM32F10x_StdPeriph_Driver/src/stm32f10x_spi.o
 .ARM.attributes
                0x00000000000007c5       0x33 ../../src/stm/Libraries/STM32F10x_StdPeriph_Driver/src/stm32f10x_tim.o
 .ARM.attributes
                0x00000000000007f8       0x33 ../../src/stm/Libraries/STM32F10x_StdPeriph_Driver/src/stm32f10x_usart.o
 .ARM.attributes
                0x000000000000082b       0x33 ../../src/stm/Libraries/STM32F10x_StdPeriph_Driver/src/stm32f10x_wwdg.o
 .ARM.attributes
                0x000000000000085e       0x33 ../../src/stm/Libraries/STM32_USB-FS-Device_Driver/src/usb_core.o
 .ARM.attributes
                0x0000000000000891       0x33 ../../src/stm/Libraries/STM32_USB-FS-Device_Driver/src/usb_init.o
 .ARM.attributes
                0x00000000000008c4       0x33 ../../src/stm/Libraries/STM32_USB-FS-Device_Driver/src/usb_int.o
 .ARM.attributes
                0x00000000000008f7       0x33 ../../src/stm/Libraries/STM32_USB-FS-Device_Driver/src/usb_mem.o
 .ARM.attributes
                0x000000000000092a       0x33 ../../src/stm/Libraries/STM32_USB-FS-Device_Driver/src/usb_regs.o
 .ARM.attributes
                0x000000000000095d       0x33 ../../src/crypt/aes/aes.o
 .ARM.attributes
                0x0000000000000990       0x33 ../../src/crypt/sha1/sha1.o
 .ARM.attributes
                0x00000000000009c3       0x33 ../../src/crypt/sha1/hmac-sha1.o
 .ARM.attributes
                0x00000000000009f6       0x33 ../../src/hotp/hotp.o
 .ARM.attributes
                0x0000000000000a29       0x33 ../../src/keyboard/keyboard.o
 .ARM.attributes
                0x0000000000000a5c       0x33 ../../src/keyboard/report_protocol.o
 .ARM.attributes
                0x0000000000000a8f       0x33 ../../src/usb/usb_endp.o
 .ARM.attributes
                0x0000000000000ac2       0x33 ../../src/usb/usb_bot.o
 .ARM.attributes
                0x0000000000000af5       0x33 ../../src/usb/usb_pwr.o
 .ARM.attributes
                0x0000000000000b28       0x33 ../../src/usb/usb_istr.o
 .ARM.attributes
                0x0000000000000b5b       0x33 ../../src/pwd-safe/FlashStorage.o
 .ARM.attributes
                0x0000000000000b8e       0x33 ../../src/pwd-safe/HandleAesStorageKey.o
 .ARM.attributes
                0x0000000000000bc1       0x33 ../../src/pwd-safe/password_safe.o
 .ARM.attributes
                0x0000000000000bf4       0x2d /usr/lib/gcc/arm-none-eabi/4.8/../../../arm-none-eabi/lib/armv7-m/libc.a(lib_a-memcmp.o)
 .ARM.attributes
                0x0000000000000c21       0x1b /usr/lib/gcc/arm-none-eabi/4.8/../../../arm-none-eabi/lib/armv7-m/libc.a(lib_a-memcpy.o)
 .ARM.attributes
                0x0000000000000c3c       0x2d /usr/lib/gcc/arm-none-eabi/4.8/../../../arm-none-eabi/lib/armv7-m/libc.a(lib_a-memmove.o)
 .ARM.attributes
                0x0000000000000c69       0x2d /usr/lib/gcc/arm-none-eabi/4.8/../../../arm-none-eabi/lib/armv7-m/libc.a(lib_a-memset.o)
 .ARM.attributes
                0x0000000000000c96       0x2d /usr/lib/gcc/arm-none-eabi/4.8/../../../arm-none-eabi/lib/armv7-m/libc.a(lib_a-rand.o)
 .ARM.attributes
                0x0000000000000cc3       0x1b /usr/lib/gcc/arm-none-eabi/4.8/../../../arm-none-eabi/lib/armv7-m/libc.a(lib_a-setjmp.o)
 .ARM.attributes
                0x0000000000000cde       0x2d /usr/lib/gcc/arm-none-eabi/4.8/../../../arm-none-eabi/lib/armv7-m/libc.a(lib_a-strcpy.o)
 .ARM.attributes
                0x0000000000000d0b       0x2d /usr/lib/gcc/arm-none-eabi/4.8/../../../arm-none-eabi/lib/armv7-m/libc.a(lib_a-strlen.o)
 .ARM.attributes
                0x0000000000000d38       0x2d /usr/lib/gcc/arm-none-eabi/4.8/../../../arm-none-eabi/lib/armv7-m/libc.a(lib_a-impure.o)
 .ARM.attributes
                0x0000000000000d65       0x1d /usr/lib/gcc/arm-none-eabi/4.8/armv7-m/libgcc.a(_aeabi_uldivmod.o)
 .ARM.attributes
                0x0000000000000d82       0x2d /usr/lib/gcc/arm-none-eabi/4.8/armv7-m/libgcc.a(bpabi.o)
 .ARM.attributes
                0x0000000000000daf       0x1d /usr/lib/gcc/arm-none-eabi/4.8/armv7-m/libgcc.a(_dvmd_tls.o)
 .ARM.attributes
                0x0000000000000dcc       0x2d /usr/lib/gcc/arm-none-eabi/4.8/armv7-m/libgcc.a(_divdi3.o)
 .ARM.attributes
                0x0000000000000df9       0x2d /usr/lib/gcc/arm-none-eabi/4.8/armv7-m/libgcc.a(_udivdi3.o)

.debug
 *(.debug)

.line
 *(.line)

.debug_srcinfo
 *(.debug_srcinfo)

.debug_sfnames
 *(.debug_sfnames)

.debug_aranges  0x0000000000000000      0x918
 *(.debug_aranges)
 .debug_aranges
                0x0000000000000000       0x28 ../../src/main.o
 .debug_aranges
                0x0000000000000028       0x20 ../../src/hw_config.o
 .debug_aranges
                0x0000000000000048       0x20 ../../src/tools.o
 .debug_aranges
                0x0000000000000068       0x20 ../../src/utils/memory_ops.o
 .debug_aranges
                0x0000000000000088       0x20 ../../src/ccid/Ccid_usb.o
 .debug_aranges
                0x00000000000000a8       0x20 ../../src/ccid/Ifd_protocol.o
 .debug_aranges
                0x00000000000000c8       0x20 ../../src/ccid/Crd.o
 .debug_aranges
                0x00000000000000e8       0x20 ../../src/ccid/Ifd_ccid.o
 .debug_aranges
                0x0000000000000108       0x20 ../../src/ccid/CcidLocalAccess.o
 .debug_aranges
                0x0000000000000128       0x20 ../../src/ccid/smartcard/smartcard.o
 .debug_aranges
                0x0000000000000148       0x20 ../../src/ccid/CCIDHID_USB/CCIDHID_usb_prop.o
 .debug_aranges
                0x0000000000000168       0x18 ../../src/ccid/CCIDHID_USB/CCIDHID_usb_desc.o
 .debug_aranges
                0x0000000000000180       0x18 ../../src/sd-disk/sd-usb/usb_desc.o
 .debug_aranges
                0x0000000000000198       0x20 ../../src/sd-disk/sd-usb/usb_prop.o
 .debug_aranges
                0x00000000000001b8       0x20 ../../src/stm/stm32f10x_systick.o
 .debug_aranges
                0x00000000000001d8       0x20 ../../src/stm/stm32f10x_it.o
 .debug_aranges
                0x00000000000001f8       0x20 ../../src/stm/Libraries/CMSIS/Core/CM3/core_cm3.o
 .debug_aranges
                0x0000000000000218       0x20 ../../src/stm/Libraries/CMSIS/Core/CM3/system_stm32f10x.o
 .debug_aranges
                0x0000000000000238       0x20 ../../src/stm/Libraries/CMSIS/Core/CM3/startup/gcc/startup_stm32f10x_hd.o
 .debug_aranges
                0x0000000000000258       0x20 ../../src/stm/Libraries/STM32F10x_StdPeriph_Driver/src/misc.o
 .debug_aranges
                0x0000000000000278       0x20 ../../src/stm/Libraries/STM32F10x_StdPeriph_Driver/src/stm32f10x_adc.o
 .debug_aranges
                0x0000000000000298       0x20 ../../src/stm/Libraries/STM32F10x_StdPeriph_Driver/src/stm32f10x_bkp.o
 .debug_aranges
                0x00000000000002b8       0x20 ../../src/stm/Libraries/STM32F10x_StdPeriph_Driver/src/stm32f10x_can.o
 .debug_aranges
                0x00000000000002d8       0x20 ../../src/stm/Libraries/STM32F10x_StdPeriph_Driver/src/stm32f10x_crc.o
 .debug_aranges
                0x00000000000002f8       0x20 ../../src/stm/Libraries/STM32F10x_StdPeriph_Driver/src/stm32f10x_dac.o
 .debug_aranges
                0x0000000000000318       0x20 ../../src/stm/Libraries/STM32F10x_StdPeriph_Driver/src/stm32f10x_dbgmcu.o
 .debug_aranges
                0x0000000000000338       0x20 ../../src/stm/Libraries/STM32F10x_StdPeriph_Driver/src/stm32f10x_dma.o
 .debug_aranges
                0x0000000000000358       0x20 ../../src/stm/Libraries/STM32F10x_StdPeriph_Driver/src/stm32f10x_exti.o
 .debug_aranges
                0x0000000000000378       0x20 ../../src/stm/Libraries/STM32F10x_StdPeriph_Driver/src/stm32f10x_flash.o
 .debug_aranges
                0x0000000000000398       0x20 ../../src/stm/Libraries/STM32F10x_StdPeriph_Driver/src/stm32f10x_fsmc.o
 .debug_aranges
                0x00000000000003b8       0x20 ../../src/stm/Libraries/STM32F10x_StdPeriph_Driver/src/stm32f10x_gpio.o
 .debug_aranges
                0x00000000000003d8       0x20 ../../src/stm/Libraries/STM32F10x_StdPeriph_Driver/src/stm32f10x_i2c.o
 .debug_aranges
                0x00000000000003f8       0x20 ../../src/stm/Libraries/STM32F10x_StdPeriph_Driver/src/stm32f10x_iwdg.o
 .debug_aranges
                0x0000000000000418       0x20 ../../src/stm/Libraries/STM32F10x_StdPeriph_Driver/src/stm32f10x_pwr.o
 .debug_aranges
                0x0000000000000438       0x20 ../../src/stm/Libraries/STM32F10x_StdPeriph_Driver/src/stm32f10x_rcc.o
 .debug_aranges
                0x0000000000000458       0x20 ../../src/stm/Libraries/STM32F10x_StdPeriph_Driver/src/stm32f10x_rtc.o
 .debug_aranges
                0x0000000000000478       0x20 ../../src/stm/Libraries/STM32F10x_StdPeriph_Driver/src/stm32f10x_sdio.o
 .debug_aranges
                0x0000000000000498       0x20 ../../src/stm/Libraries/STM32F10x_StdPeriph_Driver/src/stm32f10x_spi.o
 .debug_aranges
                0x00000000000004b8       0x20 ../../src/stm/Libraries/STM32F10x_StdPeriph_Driver/src/stm32f10x_tim.o
 .debug_aranges
                0x00000000000004d8       0x20 ../../src/stm/Libraries/STM32F10x_StdPeriph_Driver/src/stm32f10x_usart.o
 .debug_aranges
                0x00000000000004f8       0x20 ../../src/stm/Libraries/STM32F10x_StdPeriph_Driver/src/stm32f10x_wwdg.o
 .debug_aranges
                0x0000000000000518       0x20 ../../src/stm/Libraries/STM32_USB-FS-Device_Driver/src/usb_core.o
 .debug_aranges
                0x0000000000000538       0x20 ../../src/stm/Libraries/STM32_USB-FS-Device_Driver/src/usb_init.o
 .debug_aranges
                0x0000000000000558       0x20 ../../src/stm/Libraries/STM32_USB-FS-Device_Driver/src/usb_int.o
 .debug_aranges
                0x0000000000000578       0x20 ../../src/stm/Libraries/STM32_USB-FS-Device_Driver/src/usb_mem.o
 .debug_aranges
                0x0000000000000598       0x20 ../../src/stm/Libraries/STM32_USB-FS-Device_Driver/src/usb_regs.o
 .debug_aranges
                0x00000000000005b8       0x20 ../../src/crypt/aes/aes.o
 .debug_aranges
                0x00000000000005d8       0x20 ../../src/crypt/sha1/sha1.o
 .debug_aranges
                0x00000000000005f8       0x20 ../../src/crypt/sha1/hmac-sha1.o
 .debug_aranges
                0x0000000000000618       0x20 ../../src/hotp/hotp.o
 .debug_aranges
                0x0000000000000638       0x20 ../../src/keyboard/keyboard.o
 .debug_aranges
                0x0000000000000658       0x20 ../../src/keyboard/report_protocol.o
 .debug_aranges
                0x0000000000000678       0x20 ../../src/usb/usb_endp.o
 .debug_aranges
                0x0000000000000698       0x20 ../../src/usb/usb_bot.o
 .debug_aranges
                0x00000000000006b8       0x20 ../../src/usb/usb_pwr.o
 .debug_aranges
                0x00000000000006d8       0x20 ../../src/usb/usb_istr.o
 .debug_aranges
                0x00000000000006f8       0x20 ../../src/pwd-safe/FlashStorage.o
 .debug_aranges
                0x0000000000000718       0x20 ../../src/pwd-safe/HandleAesStorageKey.o
 .debug_aranges
                0x0000000000000738       0x20 ../../src/pwd-safe/password_safe.o
 .debug_aranges
                0x0000000000000758       0x20 /usr/lib/gcc/arm-none-eabi/4.8/../../../arm-none-eabi/lib/armv7-m/libc.a(lib_a-memcmp.o)
 .debug_aranges
                0x0000000000000778       0x20 /usr/lib/gcc/arm-none-eabi/4.8/../../../arm-none-eabi/lib/armv7-m/libc.a(lib_a-memcpy.o)
 .debug_aranges
                0x0000000000000798       0x20 /usr/lib/gcc/arm-none-eabi/4.8/../../../arm-none-eabi/lib/armv7-m/libc.a(lib_a-memmove.o)
 .debug_aranges
                0x00000000000007b8       0x20 /usr/lib/gcc/arm-none-eabi/4.8/../../../arm-none-eabi/lib/armv7-m/libc.a(lib_a-memset.o)
 .debug_aranges
                0x00000000000007d8       0x28 /usr/lib/gcc/arm-none-eabi/4.8/../../../arm-none-eabi/lib/armv7-m/libc.a(lib_a-rand.o)
 .debug_aranges
                0x0000000000000800       0x20 /usr/lib/gcc/arm-none-eabi/4.8/../../../arm-none-eabi/lib/armv7-m/libc.a(lib_a-setjmp.o)
 .debug_aranges
                0x0000000000000820       0x20 /usr/lib/gcc/arm-none-eabi/4.8/../../../arm-none-eabi/lib/armv7-m/libc.a(lib_a-strcpy.o)
 .debug_aranges
                0x0000000000000840       0x20 /usr/lib/gcc/arm-none-eabi/4.8/../../../arm-none-eabi/lib/armv7-m/libc.a(lib_a-strlen.o)
 .debug_aranges
                0x0000000000000860       0x18 /usr/lib/gcc/arm-none-eabi/4.8/../../../arm-none-eabi/lib/armv7-m/libc.a(lib_a-impure.o)
 .debug_aranges
                0x0000000000000878       0x20 /usr/lib/gcc/arm-none-eabi/4.8/armv7-m/libgcc.a(_aeabi_uldivmod.o)
 .debug_aranges
                0x0000000000000898       0x20 /usr/lib/gcc/arm-none-eabi/4.8/armv7-m/libgcc.a(bpabi.o)
 .debug_aranges
                0x00000000000008b8       0x20 /usr/lib/gcc/arm-none-eabi/4.8/armv7-m/libgcc.a(_dvmd_tls.o)
 .debug_aranges
                0x00000000000008d8       0x20 /usr/lib/gcc/arm-none-eabi/4.8/armv7-m/libgcc.a(_divdi3.o)
 .debug_aranges
                0x00000000000008f8       0x20 /usr/lib/gcc/arm-none-eabi/4.8/armv7-m/libgcc.a(_udivdi3.o)

.debug_pubnames
 *(.debug_pubnames)

.debug_info     0x0000000000000000    0x2312e
 *(.debug_info .gnu.linkonce.wi.*)
 .debug_info    0x0000000000000000     0x1057 ../../src/main.o
 .debug_info    0x0000000000001057     0x12c2 ../../src/hw_config.o
 .debug_info    0x0000000000002319       0xa9 ../../src/tools.o
 .debug_info    0x00000000000023c2      0x1b2 ../../src/utils/memory_ops.o
 .debug_info    0x0000000000002574      0x944 ../../src/ccid/Ccid_usb.o
 .debug_info    0x0000000000002eb8      0x8b0 ../../src/ccid/Ifd_protocol.o
 .debug_info    0x0000000000003768      0x61c ../../src/ccid/Crd.o
 .debug_info    0x0000000000003d84      0x66b ../../src/ccid/Ifd_ccid.o
 .debug_info    0x00000000000043ef     0x1634 ../../src/ccid/CcidLocalAccess.o
 .debug_info    0x0000000000005a23     0x27a3 ../../src/ccid/smartcard/smartcard.o
 .debug_info    0x00000000000081c6     0x120d ../../src/ccid/CCIDHID_USB/CCIDHID_usb_prop.o
 .debug_info    0x00000000000093d3      0x1b6 ../../src/ccid/CCIDHID_USB/CCIDHID_usb_desc.o
 .debug_info    0x0000000000009589      0x17d ../../src/sd-disk/sd-usb/usb_desc.o
 .debug_info    0x0000000000009706      0xdb9 ../../src/sd-disk/sd-usb/usb_prop.o
 .debug_info    0x000000000000a4bf      0x230 ../../src/stm/stm32f10x_systick.o
 .debug_info    0x000000000000a6ef      0x52d ../../src/stm/stm32f10x_it.o
 .debug_info    0x000000000000ac1c      0x59c ../../src/stm/Libraries/CMSIS/Core/CM3/core_cm3.o
 .debug_info    0x000000000000b1b8      0x2f4 ../../src/stm/Libraries/CMSIS/Core/CM3/system_stm32f10x.o
 .debug_info    0x000000000000b4ac      0x18e ../../src/stm/Libraries/CMSIS/Core/CM3/startup/gcc/startup_stm32f10x_hd.o
 .debug_info    0x000000000000b63a      0x53b ../../src/stm/Libraries/STM32F10x_StdPeriph_Driver/src/misc.o
 .debug_info    0x000000000000bb75      0xcae ../../src/stm/Libraries/STM32F10x_StdPeriph_Driver/src/stm32f10x_adc.o
 .debug_info    0x000000000000c823      0x895 ../../src/stm/Libraries/STM32F10x_StdPeriph_Driver/src/stm32f10x_bkp.o
 .debug_info    0x000000000000d0b8      0xb7c ../../src/stm/Libraries/STM32F10x_StdPeriph_Driver/src/stm32f10x_can.o
 .debug_info    0x000000000000dc34      0x20a ../../src/stm/Libraries/STM32F10x_StdPeriph_Driver/src/stm32f10x_crc.o
 .debug_info    0x000000000000de3e      0x4d6 ../../src/stm/Libraries/STM32F10x_StdPeriph_Driver/src/stm32f10x_dac.o
 .debug_info    0x000000000000e314      0x145 ../../src/stm/Libraries/STM32F10x_StdPeriph_Driver/src/stm32f10x_dbgmcu.o
 .debug_info    0x000000000000e459      0x45a ../../src/stm/Libraries/STM32F10x_StdPeriph_Driver/src/stm32f10x_dma.o
 .debug_info    0x000000000000e8b3      0x340 ../../src/stm/Libraries/STM32F10x_StdPeriph_Driver/src/stm32f10x_exti.o
 .debug_info    0x000000000000ebf3      0x97d ../../src/stm/Libraries/STM32F10x_StdPeriph_Driver/src/stm32f10x_flash.o
 .debug_info    0x000000000000f570      0x992 ../../src/stm/Libraries/STM32F10x_StdPeriph_Driver/src/stm32f10x_fsmc.o
 .debug_info    0x000000000000ff02      0x888 ../../src/stm/Libraries/STM32F10x_StdPeriph_Driver/src/stm32f10x_gpio.o
 .debug_info    0x000000000001078a      0xbf2 ../../src/stm/Libraries/STM32F10x_StdPeriph_Driver/src/stm32f10x_i2c.o
 .debug_info    0x000000000001137c      0x200 ../../src/stm/Libraries/STM32F10x_StdPeriph_Driver/src/stm32f10x_iwdg.o
 .debug_info    0x000000000001157c      0x332 ../../src/stm/Libraries/STM32F10x_StdPeriph_Driver/src/stm32f10x_pwr.o
 .debug_info    0x00000000000118ae      0x99f ../../src/stm/Libraries/STM32F10x_StdPeriph_Driver/src/stm32f10x_rcc.o
 .debug_info    0x000000000001224d      0x4c3 ../../src/stm/Libraries/STM32F10x_StdPeriph_Driver/src/stm32f10x_rtc.o
 .debug_info    0x0000000000012710      0x874 ../../src/stm/Libraries/STM32F10x_StdPeriph_Driver/src/stm32f10x_sdio.o
 .debug_info    0x0000000000012f84      0xa5c ../../src/stm/Libraries/STM32F10x_StdPeriph_Driver/src/stm32f10x_spi.o
 .debug_info    0x00000000000139e0     0x2534 ../../src/stm/Libraries/STM32F10x_StdPeriph_Driver/src/stm32f10x_tim.o
 .debug_info    0x0000000000015f14      0xb57 ../../src/stm/Libraries/STM32F10x_StdPeriph_Driver/src/stm32f10x_usart.o
 .debug_info    0x0000000000016a6b      0x28c ../../src/stm/Libraries/STM32F10x_StdPeriph_Driver/src/stm32f10x_wwdg.o
 .debug_info    0x0000000000016cf7      0xf6d ../../src/stm/Libraries/STM32_USB-FS-Device_Driver/src/usb_core.o
 .debug_info    0x0000000000017c64      0x58f ../../src/stm/Libraries/STM32_USB-FS-Device_Driver/src/usb_init.o
 .debug_info    0x00000000000181f3      0x238 ../../src/stm/Libraries/STM32_USB-FS-Device_Driver/src/usb_int.o
 .debug_info    0x000000000001842b      0x1c6 ../../src/stm/Libraries/STM32_USB-FS-Device_Driver/src/usb_mem.o
 .debug_info    0x00000000000185f1      0xdb5 ../../src/stm/Libraries/STM32_USB-FS-Device_Driver/src/usb_regs.o
 .debug_info    0x00000000000193a6      0x6a6 ../../src/crypt/aes/aes.o
 .debug_info    0x0000000000019a4c      0x68f ../../src/crypt/sha1/sha1.o
 .debug_info    0x000000000001a0db      0x67f ../../src/crypt/sha1/hmac-sha1.o
 .debug_info    0x000000000001a75a      0xff7 ../../src/hotp/hotp.o
 .debug_info    0x000000000001b751      0x510 ../../src/keyboard/keyboard.o
 .debug_info    0x000000000001bc61     0x1b6e ../../src/keyboard/report_protocol.o
 .debug_info    0x000000000001d7cf      0x13a ../../src/usb/usb_endp.o
 .debug_info    0x000000000001d909      0x462 ../../src/usb/usb_bot.o
 .debug_info    0x000000000001dd6b      0x402 ../../src/usb/usb_pwr.o
 .debug_info    0x000000000001e16d      0x36b ../../src/usb/usb_istr.o
 .debug_info    0x000000000001e4d8      0xb28 ../../src/pwd-safe/FlashStorage.o
 .debug_info    0x000000000001f000      0xb5f ../../src/pwd-safe/HandleAesStorageKey.o
 .debug_info    0x000000000001fb5f     0x1057 ../../src/pwd-safe/password_safe.o
 .debug_info    0x0000000000020bb6      0x113 /usr/lib/gcc/arm-none-eabi/4.8/../../../arm-none-eabi/lib/armv7-m/libc.a(lib_a-memcmp.o)
 .debug_info    0x0000000000020cc9       0xc9 /usr/lib/gcc/arm-none-eabi/4.8/../../../arm-none-eabi/lib/armv7-m/libc.a(lib_a-memcpy.o)
 .debug_info    0x0000000000020d92      0x131 /usr/lib/gcc/arm-none-eabi/4.8/../../../arm-none-eabi/lib/armv7-m/libc.a(lib_a-memmove.o)
 .debug_info    0x0000000000020ec3      0x117 /usr/lib/gcc/arm-none-eabi/4.8/../../../arm-none-eabi/lib/armv7-m/libc.a(lib_a-memset.o)
 .debug_info    0x0000000000020fda      0x8c3 /usr/lib/gcc/arm-none-eabi/4.8/../../../arm-none-eabi/lib/armv7-m/libc.a(lib_a-rand.o)
 .debug_info    0x000000000002189d       0xc2 /usr/lib/gcc/arm-none-eabi/4.8/../../../arm-none-eabi/lib/armv7-m/libc.a(lib_a-setjmp.o)
 .debug_info    0x000000000002195f       0xbd /usr/lib/gcc/arm-none-eabi/4.8/../../../arm-none-eabi/lib/armv7-m/libc.a(lib_a-strcpy.o)
 .debug_info    0x0000000000021a1c       0xb5 /usr/lib/gcc/arm-none-eabi/4.8/../../../arm-none-eabi/lib/armv7-m/libc.a(lib_a-strlen.o)
 .debug_info    0x0000000000021ad1      0x894 /usr/lib/gcc/arm-none-eabi/4.8/../../../arm-none-eabi/lib/armv7-m/libc.a(lib_a-impure.o)
 .debug_info    0x0000000000022365       0x9f /usr/lib/gcc/arm-none-eabi/4.8/armv7-m/libgcc.a(_aeabi_uldivmod.o)
 .debug_info    0x0000000000022404      0x164 /usr/lib/gcc/arm-none-eabi/4.8/armv7-m/libgcc.a(bpabi.o)
 .debug_info    0x0000000000022568       0xa3 /usr/lib/gcc/arm-none-eabi/4.8/armv7-m/libgcc.a(_dvmd_tls.o)
 .debug_info    0x000000000002260b      0x5ac /usr/lib/gcc/arm-none-eabi/4.8/armv7-m/libgcc.a(_divdi3.o)
 .debug_info    0x0000000000022bb7      0x577 /usr/lib/gcc/arm-none-eabi/4.8/armv7-m/libgcc.a(_udivdi3.o)

.debug_abbrev   0x0000000000000000     0x7dbb
 *(.debug_abbrev)
 .debug_abbrev  0x0000000000000000      0x359 ../../src/main.o
 .debug_abbrev  0x0000000000000359      0x3ec ../../src/hw_config.o
 .debug_abbrev  0x0000000000000745       0xb1 ../../src/tools.o
 .debug_abbrev  0x00000000000007f6       0xa3 ../../src/utils/memory_ops.o
 .debug_abbrev  0x0000000000000899      0x255 ../../src/ccid/Ccid_usb.o
 .debug_abbrev  0x0000000000000aee      0x356 ../../src/ccid/Ifd_protocol.o
 .debug_abbrev  0x0000000000000e44      0x2cf ../../src/ccid/Crd.o
 .debug_abbrev  0x0000000000001113      0x1d1 ../../src/ccid/Ifd_ccid.o
 .debug_abbrev  0x00000000000012e4      0x3f8 ../../src/ccid/CcidLocalAccess.o
 .debug_abbrev  0x00000000000016dc      0x47e ../../src/ccid/smartcard/smartcard.o
 .debug_abbrev  0x0000000000001b5a      0x339 ../../src/ccid/CCIDHID_USB/CCIDHID_usb_prop.o
 .debug_abbrev  0x0000000000001e93       0x6e ../../src/ccid/CCIDHID_USB/CCIDHID_usb_desc.o
 .debug_abbrev  0x0000000000001f01       0x5d ../../src/sd-disk/sd-usb/usb_desc.o
 .debug_abbrev  0x0000000000001f5e      0x319 ../../src/sd-disk/sd-usb/usb_prop.o
 .debug_abbrev  0x0000000000002277      0x126 ../../src/stm/stm32f10x_systick.o
 .debug_abbrev  0x000000000000239d      0x154 ../../src/stm/stm32f10x_it.o
 .debug_abbrev  0x00000000000024f1       0xbd ../../src/stm/Libraries/CMSIS/Core/CM3/core_cm3.o
 .debug_abbrev  0x00000000000025ae      0x113 ../../src/stm/Libraries/CMSIS/Core/CM3/system_stm32f10x.o
 .debug_abbrev  0x00000000000026c1      0x12a ../../src/stm/Libraries/CMSIS/Core/CM3/startup/gcc/startup_stm32f10x_hd.o
 .debug_abbrev  0x00000000000027eb      0x130 ../../src/stm/Libraries/STM32F10x_StdPeriph_Driver/src/misc.o
 .debug_abbrev  0x000000000000291b      0x1e7 ../../src/stm/Libraries/STM32F10x_StdPeriph_Driver/src/stm32f10x_adc.o
 .debug_abbrev  0x0000000000002b02      0x1af ../../src/stm/Libraries/STM32F10x_StdPeriph_Driver/src/stm32f10x_bkp.o
 .debug_abbrev  0x0000000000002cb1      0x2a6 ../../src/stm/Libraries/STM32F10x_StdPeriph_Driver/src/stm32f10x_can.o
 .debug_abbrev  0x0000000000002f57      0x114 ../../src/stm/Libraries/STM32F10x_StdPeriph_Driver/src/stm32f10x_crc.o
 .debug_abbrev  0x000000000000306b      0x1b4 ../../src/stm/Libraries/STM32F10x_StdPeriph_Driver/src/stm32f10x_dac.o
 .debug_abbrev  0x000000000000321f       0xdc ../../src/stm/Libraries/STM32F10x_StdPeriph_Driver/src/stm32f10x_dbgmcu.o
 .debug_abbrev  0x00000000000032fb      0x187 ../../src/stm/Libraries/STM32F10x_StdPeriph_Driver/src/stm32f10x_dma.o
 .debug_abbrev  0x0000000000003482      0x167 ../../src/stm/Libraries/STM32F10x_StdPeriph_Driver/src/stm32f10x_exti.o
 .debug_abbrev  0x00000000000035e9      0x268 ../../src/stm/Libraries/STM32F10x_StdPeriph_Driver/src/stm32f10x_flash.o
 .debug_abbrev  0x0000000000003851      0x1cb ../../src/stm/Libraries/STM32F10x_StdPeriph_Driver/src/stm32f10x_fsmc.o
 .debug_abbrev  0x0000000000003a1c      0x1f4 ../../src/stm/Libraries/STM32F10x_StdPeriph_Driver/src/stm32f10x_gpio.o
 .debug_abbrev  0x0000000000003c10      0x205 ../../src/stm/Libraries/STM32F10x_StdPeriph_Driver/src/stm32f10x_i2c.o
 .debug_abbrev  0x0000000000003e15       0xff ../../src/stm/Libraries/STM32F10x_StdPeriph_Driver/src/stm32f10x_iwdg.o
 .debug_abbrev  0x0000000000003f14      0x1a7 ../../src/stm/Libraries/STM32F10x_StdPeriph_Driver/src/stm32f10x_pwr.o
 .debug_abbrev  0x00000000000040bb      0x2ae ../../src/stm/Libraries/STM32F10x_StdPeriph_Driver/src/stm32f10x_rcc.o
 .debug_abbrev  0x0000000000004369      0x1ca ../../src/stm/Libraries/STM32F10x_StdPeriph_Driver/src/stm32f10x_rtc.o
 .debug_abbrev  0x0000000000004533      0x1fb ../../src/stm/Libraries/STM32F10x_StdPeriph_Driver/src/stm32f10x_sdio.o
 .debug_abbrev  0x000000000000472e      0x207 ../../src/stm/Libraries/STM32F10x_StdPeriph_Driver/src/stm32f10x_spi.o
 .debug_abbrev  0x0000000000004935      0x2b4 ../../src/stm/Libraries/STM32F10x_StdPeriph_Driver/src/stm32f10x_tim.o
 .debug_abbrev  0x0000000000004be9      0x23b ../../src/stm/Libraries/STM32F10x_StdPeriph_Driver/src/stm32f10x_usart.o
 .debug_abbrev  0x0000000000004e24      0x149 ../../src/stm/Libraries/STM32F10x_StdPeriph_Driver/src/stm32f10x_wwdg.o
 .debug_abbrev  0x0000000000004f6d      0x424 ../../src/stm/Libraries/STM32_USB-FS-Device_Driver/src/usb_core.o
 .debug_abbrev  0x0000000000005391      0x13c ../../src/stm/Libraries/STM32_USB-FS-Device_Driver/src/usb_init.o
 .debug_abbrev  0x00000000000054cd       0xe5 ../../src/stm/Libraries/STM32_USB-FS-Device_Driver/src/usb_int.o
 .debug_abbrev  0x00000000000055b2       0xa1 ../../src/stm/Libraries/STM32_USB-FS-Device_Driver/src/usb_mem.o
 .debug_abbrev  0x0000000000005653      0x218 ../../src/stm/Libraries/STM32_USB-FS-Device_Driver/src/usb_regs.o
 .debug_abbrev  0x000000000000586b      0x155 ../../src/crypt/aes/aes.o
 .debug_abbrev  0x00000000000059c0      0x26f ../../src/crypt/sha1/sha1.o
 .debug_abbrev  0x0000000000005c2f      0x178 ../../src/crypt/sha1/hmac-sha1.o
 .debug_abbrev  0x0000000000005da7      0x3c1 ../../src/hotp/hotp.o
 .debug_abbrev  0x0000000000006168      0x1f7 ../../src/keyboard/keyboard.o
 .debug_abbrev  0x000000000000635f      0x308 ../../src/keyboard/report_protocol.o
 .debug_abbrev  0x0000000000006667       0xb3 ../../src/usb/usb_endp.o
 .debug_abbrev  0x000000000000671a      0x162 ../../src/usb/usb_bot.o
 .debug_abbrev  0x000000000000687c      0x1db ../../src/usb/usb_pwr.o
 .debug_abbrev  0x0000000000006a57      0x152 ../../src/usb/usb_istr.o
 .debug_abbrev  0x0000000000006ba9      0x25a ../../src/pwd-safe/FlashStorage.o
 .debug_abbrev  0x0000000000006e03      0x24e ../../src/pwd-safe/HandleAesStorageKey.o
 .debug_abbrev  0x0000000000007051      0x3b4 ../../src/pwd-safe/password_safe.o
 .debug_abbrev  0x0000000000007405       0x7f /usr/lib/gcc/arm-none-eabi/4.8/../../../arm-none-eabi/lib/armv7-m/libc.a(lib_a-memcmp.o)
 .debug_abbrev  0x0000000000007484       0x14 /usr/lib/gcc/arm-none-eabi/4.8/../../../arm-none-eabi/lib/armv7-m/libc.a(lib_a-memcpy.o)
 .debug_abbrev  0x0000000000007498       0xab /usr/lib/gcc/arm-none-eabi/4.8/../../../arm-none-eabi/lib/armv7-m/libc.a(lib_a-memmove.o)
 .debug_abbrev  0x0000000000007543       0x9f /usr/lib/gcc/arm-none-eabi/4.8/../../../arm-none-eabi/lib/armv7-m/libc.a(lib_a-memset.o)
 .debug_abbrev  0x00000000000075e2      0x1d6 /usr/lib/gcc/arm-none-eabi/4.8/../../../arm-none-eabi/lib/armv7-m/libc.a(lib_a-rand.o)
 .debug_abbrev  0x00000000000077b8       0x14 /usr/lib/gcc/arm-none-eabi/4.8/../../../arm-none-eabi/lib/armv7-m/libc.a(lib_a-setjmp.o)
 .debug_abbrev  0x00000000000077cc       0x72 /usr/lib/gcc/arm-none-eabi/4.8/../../../arm-none-eabi/lib/armv7-m/libc.a(lib_a-strcpy.o)
 .debug_abbrev  0x000000000000783e       0x70 /usr/lib/gcc/arm-none-eabi/4.8/../../../arm-none-eabi/lib/armv7-m/libc.a(lib_a-strlen.o)
 .debug_abbrev  0x00000000000078ae      0x180 /usr/lib/gcc/arm-none-eabi/4.8/../../../arm-none-eabi/lib/armv7-m/libc.a(lib_a-impure.o)
 .debug_abbrev  0x0000000000007a2e       0x14 /usr/lib/gcc/arm-none-eabi/4.8/armv7-m/libgcc.a(_aeabi_uldivmod.o)
 .debug_abbrev  0x0000000000007a42       0xb7 /usr/lib/gcc/arm-none-eabi/4.8/armv7-m/libgcc.a(bpabi.o)
 .debug_abbrev  0x0000000000007af9       0x14 /usr/lib/gcc/arm-none-eabi/4.8/armv7-m/libgcc.a(_dvmd_tls.o)
 .debug_abbrev  0x0000000000007b0d      0x15a /usr/lib/gcc/arm-none-eabi/4.8/armv7-m/libgcc.a(_divdi3.o)
 .debug_abbrev  0x0000000000007c67      0x154 /usr/lib/gcc/arm-none-eabi/4.8/armv7-m/libgcc.a(_udivdi3.o)

.debug_line     0x0000000000000000     0x9568
 *(.debug_line)
 .debug_line    0x0000000000000000      0x320 ../../src/main.o
 .debug_line    0x0000000000000320      0x378 ../../src/hw_config.o
 .debug_line    0x0000000000000698        0x0 ../../src/test_code.o
 .debug_line    0x0000000000000698       0x48 ../../src/tools.o
 .debug_line    0x00000000000006e0       0xc8 ../../src/utils/memory_ops.o
 .debug_line    0x00000000000007a8      0x2f8 ../../src/ccid/Ccid_usb.o
 .debug_line    0x0000000000000aa0      0x302 ../../src/ccid/Ifd_protocol.o
 .debug_line    0x0000000000000da2      0x18e ../../src/ccid/Crd.o
 .debug_line    0x0000000000000f30      0x2dd ../../src/ccid/Ifd_ccid.o
 .debug_line    0x000000000000120d      0x50e ../../src/ccid/CcidLocalAccess.o
 .debug_line    0x000000000000171b      0x624 ../../src/ccid/smartcard/smartcard.o
 .debug_line    0x0000000000001d3f      0x31d ../../src/ccid/CCIDHID_USB/CCIDHID_usb_prop.o
 .debug_line    0x000000000000205c       0x9e ../../src/ccid/CCIDHID_USB/CCIDHID_usb_desc.o
 .debug_line    0x00000000000020fa       0x94 ../../src/sd-disk/sd-usb/usb_desc.o
 .debug_line    0x000000000000218e      0x207 ../../src/sd-disk/sd-usb/usb_prop.o
 .debug_line    0x0000000000002395      0x10a ../../src/stm/stm32f10x_systick.o
 .debug_line    0x000000000000249f      0x199 ../../src/stm/stm32f10x_it.o
 .debug_line    0x0000000000002638      0x117 ../../src/stm/Libraries/CMSIS/Core/CM3/core_cm3.o
 .debug_line    0x000000000000274f      0x10d ../../src/stm/Libraries/CMSIS/Core/CM3/system_stm32f10x.o
 .debug_line    0x000000000000285c       0xa0 ../../src/stm/Libraries/CMSIS/Core/CM3/startup/gcc/startup_stm32f10x_hd.o
 .debug_line    0x00000000000028fc      0x17f ../../src/stm/Libraries/STM32F10x_StdPeriph_Driver/src/misc.o
 .debug_line    0x0000000000002a7b      0x2f9 ../../src/stm/Libraries/STM32F10x_StdPeriph_Driver/src/stm32f10x_adc.o
 .debug_line    0x0000000000002d74      0x179 ../../src/stm/Libraries/STM32F10x_StdPeriph_Driver/src/stm32f10x_bkp.o
 .debug_line    0x0000000000002eed      0x387 ../../src/stm/Libraries/STM32F10x_StdPeriph_Driver/src/stm32f10x_can.o
 .debug_line    0x0000000000003274      0x12c ../../src/stm/Libraries/STM32F10x_StdPeriph_Driver/src/stm32f10x_crc.o
 .debug_line    0x00000000000033a0      0x1bf ../../src/stm/Libraries/STM32F10x_StdPeriph_Driver/src/stm32f10x_dac.o
 .debug_line    0x000000000000355f      0x10c ../../src/stm/Libraries/STM32F10x_StdPeriph_Driver/src/stm32f10x_dbgmcu.o
 .debug_line    0x000000000000366b      0x1f7 ../../src/stm/Libraries/STM32F10x_StdPeriph_Driver/src/stm32f10x_dma.o
 .debug_line    0x0000000000003862      0x1ad ../../src/stm/Libraries/STM32F10x_StdPeriph_Driver/src/stm32f10x_exti.o
 .debug_line    0x0000000000003a0f      0x2f2 ../../src/stm/Libraries/STM32F10x_StdPeriph_Driver/src/stm32f10x_flash.o
 .debug_line    0x0000000000003d01      0x328 ../../src/stm/Libraries/STM32F10x_StdPeriph_Driver/src/stm32f10x_fsmc.o
 .debug_line    0x0000000000004029      0x25b ../../src/stm/Libraries/STM32F10x_StdPeriph_Driver/src/stm32f10x_gpio.o
 .debug_line    0x0000000000004284      0x2bd ../../src/stm/Libraries/STM32F10x_StdPeriph_Driver/src/stm32f10x_i2c.o
 .debug_line    0x0000000000004541      0x116 ../../src/stm/Libraries/STM32F10x_StdPeriph_Driver/src/stm32f10x_iwdg.o
 .debug_line    0x0000000000004657      0x1af ../../src/stm/Libraries/STM32F10x_StdPeriph_Driver/src/stm32f10x_pwr.o
 .debug_line    0x0000000000004806      0x27a ../../src/stm/Libraries/STM32F10x_StdPeriph_Driver/src/stm32f10x_rcc.o
 .debug_line    0x0000000000004a80      0x1a2 ../../src/stm/Libraries/STM32F10x_StdPeriph_Driver/src/stm32f10x_rtc.o
 .debug_line    0x0000000000004c22      0x237 ../../src/stm/Libraries/STM32F10x_StdPeriph_Driver/src/stm32f10x_sdio.o
 .debug_line    0x0000000000004e59      0x26d ../../src/stm/Libraries/STM32F10x_StdPeriph_Driver/src/stm32f10x_spi.o
 .debug_line    0x00000000000050c6      0x764 ../../src/stm/Libraries/STM32F10x_StdPeriph_Driver/src/stm32f10x_tim.o
 .debug_line    0x000000000000582a      0x2b1 ../../src/stm/Libraries/STM32F10x_StdPeriph_Driver/src/stm32f10x_usart.o
 .debug_line    0x0000000000005adb      0x16c ../../src/stm/Libraries/STM32F10x_StdPeriph_Driver/src/stm32f10x_wwdg.o
 .debug_line    0x0000000000005c47      0x4a0 ../../src/stm/Libraries/STM32_USB-FS-Device_Driver/src/usb_core.o
 .debug_line    0x00000000000060e7      0x165 ../../src/stm/Libraries/STM32_USB-FS-Device_Driver/src/usb_init.o
 .debug_line    0x000000000000624c      0x18f ../../src/stm/Libraries/STM32_USB-FS-Device_Driver/src/usb_int.o
 .debug_line    0x00000000000063db      0x105 ../../src/stm/Libraries/STM32_USB-FS-Device_Driver/src/usb_mem.o
 .debug_line    0x00000000000064e0      0x2af ../../src/stm/Libraries/STM32_USB-FS-Device_Driver/src/usb_regs.o
 .debug_line    0x000000000000678f      0x6df ../../src/crypt/aes/aes.o
 .debug_line    0x0000000000006e6e      0x1d6 ../../src/crypt/sha1/sha1.o
 .debug_line    0x0000000000007044      0x141 ../../src/crypt/sha1/hmac-sha1.o
 .debug_line    0x0000000000007185      0x2dc ../../src/hotp/hotp.o
 .debug_line    0x0000000000007461      0x24d ../../src/keyboard/keyboard.o
 .debug_line    0x00000000000076ae      0x4f2 ../../src/keyboard/report_protocol.o
 .debug_line    0x0000000000007ba0       0xc2 ../../src/usb/usb_endp.o
 .debug_line    0x0000000000007c62      0x14c ../../src/usb/usb_bot.o
 .debug_line    0x0000000000007dae      0x1d3 ../../src/usb/usb_pwr.o
 .debug_line    0x0000000000007f81      0x17d ../../src/usb/usb_istr.o
 .debug_line    0x00000000000080fe      0x2e8 ../../src/pwd-safe/FlashStorage.o
 .debug_line    0x00000000000083e6      0x250 ../../src/pwd-safe/HandleAesStorageKey.o
 .debug_line    0x0000000000008636      0x3c4 ../../src/pwd-safe/password_safe.o
 .debug_line    0x00000000000089fa      0x108 /usr/lib/gcc/arm-none-eabi/4.8/../../../arm-none-eabi/lib/armv7-m/libc.a(lib_a-memcmp.o)
 .debug_line    0x0000000000008b02       0xbb /usr/lib/gcc/arm-none-eabi/4.8/../../../arm-none-eabi/lib/armv7-m/libc.a(lib_a-memcpy.o)
 .debug_line    0x0000000000008bbd      0x126 /usr/lib/gcc/arm-none-eabi/4.8/../../../arm-none-eabi/lib/armv7-m/libc.a(lib_a-memmove.o)
 .debug_line    0x0000000000008ce3      0x11a /usr/lib/gcc/arm-none-eabi/4.8/../../../arm-none-eabi/lib/armv7-m/libc.a(lib_a-memset.o)
 .debug_line    0x0000000000008dfd      0x15c /usr/lib/gcc/arm-none-eabi/4.8/../../../arm-none-eabi/lib/armv7-m/libc.a(lib_a-rand.o)
 .debug_line    0x0000000000008f59       0x75 /usr/lib/gcc/arm-none-eabi/4.8/../../../arm-none-eabi/lib/armv7-m/libc.a(lib_a-setjmp.o)
 .debug_line    0x0000000000008fce       0xb5 /usr/lib/gcc/arm-none-eabi/4.8/../../../arm-none-eabi/lib/armv7-m/libc.a(lib_a-strcpy.o)
 .debug_line    0x0000000000009083       0xe9 /usr/lib/gcc/arm-none-eabi/4.8/../../../arm-none-eabi/lib/armv7-m/libc.a(lib_a-strlen.o)
 .debug_line    0x000000000000916c       0xe8 /usr/lib/gcc/arm-none-eabi/4.8/../../../arm-none-eabi/lib/armv7-m/libc.a(lib_a-impure.o)
 .debug_line    0x0000000000009254       0x68 /usr/lib/gcc/arm-none-eabi/4.8/armv7-m/libgcc.a(_aeabi_uldivmod.o)
 .debug_line    0x00000000000092bc       0x68 /usr/lib/gcc/arm-none-eabi/4.8/armv7-m/libgcc.a(bpabi.o)
 .debug_line    0x0000000000009324       0x64 /usr/lib/gcc/arm-none-eabi/4.8/armv7-m/libgcc.a(_dvmd_tls.o)
 .debug_line    0x0000000000009388       0xeb /usr/lib/gcc/arm-none-eabi/4.8/armv7-m/libgcc.a(_divdi3.o)
 .debug_line    0x0000000000009473       0xf5 /usr/lib/gcc/arm-none-eabi/4.8/armv7-m/libgcc.a(_udivdi3.o)

.debug_frame    0x0000000000000000     0x520c
 *(.debug_frame)
 .debug_frame   0x0000000000000000       0x80 ../../src/main.o
 .debug_frame   0x0000000000000080      0x1e0 ../../src/hw_config.o
 .debug_frame   0x0000000000000260       0x40 ../../src/tools.o
 .debug_frame   0x00000000000002a0       0x50 ../../src/utils/memory_ops.o
 .debug_frame   0x00000000000002f0      0x1ac ../../src/ccid/Ccid_usb.o
 .debug_frame   0x000000000000049c      0x1b4 ../../src/ccid/Ifd_protocol.o
 .debug_frame   0x0000000000000650      0x204 ../../src/ccid/Crd.o
 .debug_frame   0x0000000000000854      0x214 ../../src/ccid/Ifd_ccid.o
 .debug_frame   0x0000000000000a68      0x43c ../../src/ccid/CcidLocalAccess.o
 .debug_frame   0x0000000000000ea4      0x2b4 ../../src/ccid/smartcard/smartcard.o
 .debug_frame   0x0000000000001158      0x1a4 ../../src/ccid/CCIDHID_USB/CCIDHID_usb_prop.o
 .debug_frame   0x00000000000012fc      0x128 ../../src/sd-disk/sd-usb/usb_prop.o
 .debug_frame   0x0000000000001424       0x60 ../../src/stm/stm32f10x_systick.o
 .debug_frame   0x0000000000001484       0xf8 ../../src/stm/stm32f10x_it.o
 .debug_frame   0x000000000000157c      0x170 ../../src/stm/Libraries/CMSIS/Core/CM3/core_cm3.o
 .debug_frame   0x00000000000016ec       0x2c ../../src/stm/Libraries/CMSIS/Core/CM3/system_stm32f10x.o
 .debug_frame   0x0000000000001718       0x6c ../../src/stm/Libraries/CMSIS/Core/CM3/startup/gcc/startup_stm32f10x_hd.o
 .debug_frame   0x0000000000001784       0x6c ../../src/stm/Libraries/STM32F10x_StdPeriph_Driver/src/misc.o
 .debug_frame   0x00000000000017f0      0x280 ../../src/stm/Libraries/STM32F10x_StdPeriph_Driver/src/stm32f10x_adc.o
 .debug_frame   0x0000000000001a70       0xdc ../../src/stm/Libraries/STM32F10x_StdPeriph_Driver/src/stm32f10x_bkp.o
 .debug_frame   0x0000000000001b4c      0x178 ../../src/stm/Libraries/STM32F10x_StdPeriph_Driver/src/stm32f10x_can.o
 .debug_frame   0x0000000000001cc4       0x70 ../../src/stm/Libraries/STM32F10x_StdPeriph_Driver/src/stm32f10x_crc.o
 .debug_frame   0x0000000000001d34       0xe8 ../../src/stm/Libraries/STM32F10x_StdPeriph_Driver/src/stm32f10x_dac.o
 .debug_frame   0x0000000000001e1c       0x40 ../../src/stm/Libraries/STM32F10x_StdPeriph_Driver/src/stm32f10x_dbgmcu.o
 .debug_frame   0x0000000000001e5c       0xc0 ../../src/stm/Libraries/STM32F10x_StdPeriph_Driver/src/stm32f10x_dma.o
 .debug_frame   0x0000000000001f1c       0x9c ../../src/stm/Libraries/STM32F10x_StdPeriph_Driver/src/stm32f10x_exti.o
 .debug_frame   0x0000000000001fb8      0x224 ../../src/stm/Libraries/STM32F10x_StdPeriph_Driver/src/stm32f10x_flash.o
 .debug_frame   0x00000000000021dc      0x1a4 ../../src/stm/Libraries/STM32F10x_StdPeriph_Driver/src/stm32f10x_fsmc.o
 .debug_frame   0x0000000000002380      0x164 ../../src/stm/Libraries/STM32F10x_StdPeriph_Driver/src/stm32f10x_gpio.o
 .debug_frame   0x00000000000024e4      0x244 ../../src/stm/Libraries/STM32F10x_StdPeriph_Driver/src/stm32f10x_i2c.o
 .debug_frame   0x0000000000002728       0x70 ../../src/stm/Libraries/STM32F10x_StdPeriph_Driver/src/stm32f10x_iwdg.o
 .debug_frame   0x0000000000002798       0xb4 ../../src/stm/Libraries/STM32F10x_StdPeriph_Driver/src/stm32f10x_pwr.o
 .debug_frame   0x000000000000284c      0x21c ../../src/stm/Libraries/STM32F10x_StdPeriph_Driver/src/stm32f10x_rcc.o
 .debug_frame   0x0000000000002a68       0xf0 ../../src/stm/Libraries/STM32F10x_StdPeriph_Driver/src/stm32f10x_rtc.o
 .debug_frame   0x0000000000002b58      0x214 ../../src/stm/Libraries/STM32F10x_StdPeriph_Driver/src/stm32f10x_sdio.o
 .debug_frame   0x0000000000002d6c      0x1bc ../../src/stm/Libraries/STM32F10x_StdPeriph_Driver/src/stm32f10x_spi.o
 .debug_frame   0x0000000000002f28      0x63c ../../src/stm/Libraries/STM32F10x_StdPeriph_Driver/src/stm32f10x_tim.o
 .debug_frame   0x0000000000003564      0x1f8 ../../src/stm/Libraries/STM32F10x_StdPeriph_Driver/src/stm32f10x_usart.o
 .debug_frame   0x000000000000375c       0x9c ../../src/stm/Libraries/STM32F10x_StdPeriph_Driver/src/stm32f10x_wwdg.o
 .debug_frame   0x00000000000037f8      0x1e4 ../../src/stm/Libraries/STM32_USB-FS-Device_Driver/src/usb_core.o
 .debug_frame   0x00000000000039dc       0x5c ../../src/stm/Libraries/STM32_USB-FS-Device_Driver/src/usb_init.o
 .debug_frame   0x0000000000003a38       0x64 ../../src/stm/Libraries/STM32_USB-FS-Device_Driver/src/usb_int.o
 .debug_frame   0x0000000000003a9c       0x38 ../../src/stm/Libraries/STM32_USB-FS-Device_Driver/src/usb_mem.o
 .debug_frame   0x0000000000003ad4      0x3d8 ../../src/stm/Libraries/STM32_USB-FS-Device_Driver/src/usb_regs.o
 .debug_frame   0x0000000000003eac      0x12c ../../src/crypt/aes/aes.o
 .debug_frame   0x0000000000003fd8       0xf8 ../../src/crypt/sha1/sha1.o
 .debug_frame   0x00000000000040d0       0xb8 ../../src/crypt/sha1/hmac-sha1.o
 .debug_frame   0x0000000000004188      0x224 ../../src/hotp/hotp.o
 .debug_frame   0x00000000000043ac      0x108 ../../src/keyboard/keyboard.o
 .debug_frame   0x00000000000044b4      0x440 ../../src/keyboard/report_protocol.o
 .debug_frame   0x00000000000048f4       0x60 ../../src/usb/usb_endp.o
 .debug_frame   0x0000000000004954       0x9c ../../src/usb/usb_bot.o
 .debug_frame   0x00000000000049f0       0xb8 ../../src/usb/usb_pwr.o
 .debug_frame   0x0000000000004aa8       0x30 ../../src/usb/usb_istr.o
 .debug_frame   0x0000000000004ad8      0x204 ../../src/pwd-safe/FlashStorage.o
 .debug_frame   0x0000000000004cdc      0x134 ../../src/pwd-safe/HandleAesStorageKey.o
 .debug_frame   0x0000000000004e10      0x240 ../../src/pwd-safe/password_safe.o
 .debug_frame   0x0000000000005050       0x2c /usr/lib/gcc/arm-none-eabi/4.8/../../../arm-none-eabi/lib/armv7-m/libc.a(lib_a-memcmp.o)
 .debug_frame   0x000000000000507c       0x2c /usr/lib/gcc/arm-none-eabi/4.8/../../../arm-none-eabi/lib/armv7-m/libc.a(lib_a-memmove.o)
 .debug_frame   0x00000000000050a8       0x2c /usr/lib/gcc/arm-none-eabi/4.8/../../../arm-none-eabi/lib/armv7-m/libc.a(lib_a-memset.o)
 .debug_frame   0x00000000000050d4       0x38 /usr/lib/gcc/arm-none-eabi/4.8/../../../arm-none-eabi/lib/armv7-m/libc.a(lib_a-rand.o)
 .debug_frame   0x000000000000510c       0x20 /usr/lib/gcc/arm-none-eabi/4.8/../../../arm-none-eabi/lib/armv7-m/libc.a(lib_a-strcpy.o)
 .debug_frame   0x000000000000512c       0x20 /usr/lib/gcc/arm-none-eabi/4.8/../../../arm-none-eabi/lib/armv7-m/libc.a(lib_a-strlen.o)
 .debug_frame   0x000000000000514c       0x58 /usr/lib/gcc/arm-none-eabi/4.8/armv7-m/libgcc.a(bpabi.o)
 .debug_frame   0x00000000000051a4       0x34 /usr/lib/gcc/arm-none-eabi/4.8/armv7-m/libgcc.a(_divdi3.o)
 .debug_frame   0x00000000000051d8       0x34 /usr/lib/gcc/arm-none-eabi/4.8/armv7-m/libgcc.a(_udivdi3.o)

.debug_str      0x0000000000000000     0x974f
 *(.debug_str)
 .debug_str     0x0000000000000000      0x9d5 ../../src/main.o
                                        0xa68 (size before relaxing)
 .debug_str     0x00000000000009d5      0x5f0 ../../src/hw_config.o
                                        0xd1b (size before relaxing)
 .debug_str     0x0000000000000fc5        0x0 ../../src/test_code.o
 .debug_str     0x0000000000000fc5       0x35 ../../src/tools.o
                                         0xc4 (size before relaxing)
 .debug_str     0x0000000000000ffa       0x41 ../../src/utils/memory_ops.o
                                        0x1b9 (size before relaxing)
 .debug_str     0x000000000000103b      0x3fa ../../src/ccid/Ccid_usb.o
                                        0x5a4 (size before relaxing)
 .debug_str     0x0000000000001435      0x2b6 ../../src/ccid/Ifd_protocol.o
                                        0x463 (size before relaxing)
 .debug_str     0x00000000000016eb      0x257 ../../src/ccid/Crd.o
                                        0x3d8 (size before relaxing)
 .debug_str     0x0000000000001942       0x2b ../../src/ccid/Ifd_ccid.o
                                        0x3e7 (size before relaxing)
 .debug_str     0x000000000000196d      0x42a ../../src/ccid/CcidLocalAccess.o
                                        0x621 (size before relaxing)
 .debug_str     0x0000000000001d97      0x775 ../../src/ccid/smartcard/smartcard.o
                                       0x1140 (size before relaxing)
 .debug_str     0x000000000000250c      0x85d ../../src/ccid/CCIDHID_USB/CCIDHID_usb_prop.o
                                        0xdd0 (size before relaxing)
 .debug_str     0x0000000000002d69       0x2e ../../src/ccid/CCIDHID_USB/CCIDHID_usb_desc.o
                                        0x200 (size before relaxing)
 .debug_str     0x0000000000002d97       0xae ../../src/sd-disk/sd-usb/usb_desc.o
                                        0x1dc (size before relaxing)
 .debug_str     0x0000000000002e45      0x1cf ../../src/sd-disk/sd-usb/usb_prop.o
                                        0xa10 (size before relaxing)
 .debug_str     0x0000000000003014       0x95 ../../src/stm/stm32f10x_systick.o
                                        0x251 (size before relaxing)
 .debug_str     0x00000000000030a9      0x11e ../../src/stm/stm32f10x_it.o
                                        0x41a (size before relaxing)
 .debug_str     0x00000000000031c7      0x159 ../../src/stm/Libraries/CMSIS/Core/CM3/core_cm3.o
                                        0x2dc (size before relaxing)
 .debug_str     0x0000000000003320      0x13b ../../src/stm/Libraries/CMSIS/Core/CM3/system_stm32f10x.o
                                        0x2ac (size before relaxing)
 .debug_str     0x000000000000345b       0xcd ../../src/stm/Libraries/CMSIS/Core/CM3/startup/gcc/startup_stm32f10x_hd.o
                                        0x17c (size before relaxing)
 .debug_str     0x0000000000003528       0xc6 ../../src/stm/Libraries/STM32F10x_StdPeriph_Driver/src/misc.o
                                        0x3ba (size before relaxing)
 .debug_str     0x00000000000035ee      0x55d ../../src/stm/Libraries/STM32F10x_StdPeriph_Driver/src/stm32f10x_adc.o
                                        0x714 (size before relaxing)
 .debug_str     0x0000000000003b4b      0x343 ../../src/stm/Libraries/STM32F10x_StdPeriph_Driver/src/stm32f10x_bkp.o
                                        0x5ca (size before relaxing)
 .debug_str     0x0000000000003e8e      0x473 ../../src/stm/Libraries/STM32F10x_StdPeriph_Driver/src/stm32f10x_can.o
                                        0x658 (size before relaxing)
 .debug_str     0x0000000000004301       0xc0 ../../src/stm/Libraries/STM32F10x_StdPeriph_Driver/src/stm32f10x_crc.o
                                        0x23d (size before relaxing)
 .debug_str     0x00000000000043c1      0x219 ../../src/stm/Libraries/STM32F10x_StdPeriph_Driver/src/stm32f10x_dac.o
                                        0x3b6 (size before relaxing)
 .debug_str     0x00000000000045da       0x9c ../../src/stm/Libraries/STM32F10x_StdPeriph_Driver/src/stm32f10x_dbgmcu.o
                                        0x1f4 (size before relaxing)
 .debug_str     0x0000000000004676      0x1f7 ../../src/stm/Libraries/STM32F10x_StdPeriph_Driver/src/stm32f10x_dma.o
                                        0x38e (size before relaxing)
 .debug_str     0x000000000000486d      0x1cb ../../src/stm/Libraries/STM32F10x_StdPeriph_Driver/src/stm32f10x_exti.o
                                        0x34b (size before relaxing)
 .debug_str     0x0000000000004a38      0x36d ../../src/stm/Libraries/STM32F10x_StdPeriph_Driver/src/stm32f10x_flash.o
                                        0x579 (size before relaxing)
 .debug_str     0x0000000000004da5      0x5c3 ../../src/stm/Libraries/STM32F10x_StdPeriph_Driver/src/stm32f10x_fsmc.o
                                        0x766 (size before relaxing)
 .debug_str     0x0000000000005368      0x1af ../../src/stm/Libraries/STM32F10x_StdPeriph_Driver/src/stm32f10x_gpio.o
                                        0x4ec (size before relaxing)
 .debug_str     0x0000000000005517      0x398 ../../src/stm/Libraries/STM32F10x_StdPeriph_Driver/src/stm32f10x_i2c.o
                                        0x669 (size before relaxing)
 .debug_str     0x00000000000058af       0xe6 ../../src/stm/Libraries/STM32F10x_StdPeriph_Driver/src/stm32f10x_iwdg.o
                                        0x25e (size before relaxing)
 .debug_str     0x0000000000005995      0x126 ../../src/stm/Libraries/STM32F10x_StdPeriph_Driver/src/stm32f10x_pwr.o
                                        0x2c9 (size before relaxing)
 .debug_str     0x0000000000005abb      0x223 ../../src/stm/Libraries/STM32F10x_StdPeriph_Driver/src/stm32f10x_rcc.o
                                        0x61c (size before relaxing)
 .debug_str     0x0000000000005cde      0x19e ../../src/stm/Libraries/STM32F10x_StdPeriph_Driver/src/stm32f10x_rtc.o
                                        0x392 (size before relaxing)
 .debug_str     0x0000000000005e7c      0x47f ../../src/stm/Libraries/STM32F10x_StdPeriph_Driver/src/stm32f10x_sdio.o
                                        0x632 (size before relaxing)
 .debug_str     0x00000000000062fb      0x363 ../../src/stm/Libraries/STM32F10x_StdPeriph_Driver/src/stm32f10x_spi.o
                                        0x633 (size before relaxing)
 .debug_str     0x000000000000665e      0xa36 ../../src/stm/Libraries/STM32F10x_StdPeriph_Driver/src/stm32f10x_tim.o
                                        0xe08 (size before relaxing)
 .debug_str     0x0000000000007094      0x247 ../../src/stm/Libraries/STM32F10x_StdPeriph_Driver/src/stm32f10x_usart.o
                                        0x6a5 (size before relaxing)
 .debug_str     0x00000000000072db       0xe2 ../../src/stm/Libraries/STM32F10x_StdPeriph_Driver/src/stm32f10x_wwdg.o
                                        0x286 (size before relaxing)
 .debug_str     0x00000000000073bd      0x39f ../../src/stm/Libraries/STM32_USB-FS-Device_Driver/src/usb_core.o
                                        0xadf (size before relaxing)
 .debug_str     0x000000000000775c       0x62 ../../src/stm/Libraries/STM32_USB-FS-Device_Driver/src/usb_init.o
                                        0x656 (size before relaxing)
 .debug_str     0x00000000000077be       0x6a ../../src/stm/Libraries/STM32_USB-FS-Device_Driver/src/usb_int.o
                                        0x216 (size before relaxing)
 .debug_str     0x0000000000007828       0x71 ../../src/stm/Libraries/STM32_USB-FS-Device_Driver/src/usb_mem.o
                                        0x1ef (size before relaxing)
 .debug_str     0x0000000000007899      0x33d ../../src/stm/Libraries/STM32_USB-FS-Device_Driver/src/usb_regs.o
                                        0x577 (size before relaxing)
 .debug_str     0x0000000000007bd6       0xaf ../../src/crypt/aes/aes.o
                                        0x1e8 (size before relaxing)
 .debug_str     0x0000000000007c85       0x6b ../../src/crypt/sha1/sha1.o
                                        0x239 (size before relaxing)
 .debug_str     0x0000000000007cf0       0xa6 ../../src/crypt/sha1/hmac-sha1.o
                                        0x28b (size before relaxing)
 .debug_str     0x0000000000007d96      0x179 ../../src/hotp/hotp.o
                                        0x4af (size before relaxing)
 .debug_str     0x0000000000007f0f       0x6e ../../src/keyboard/keyboard.o
                                        0x2ad (size before relaxing)
 .debug_str     0x0000000000007f7d      0x4eb ../../src/keyboard/report_protocol.o
                                        0x8a2 (size before relaxing)
 .debug_str     0x0000000000008468       0x6b ../../src/usb/usb_endp.o
                                        0x1d1 (size before relaxing)
 .debug_str     0x00000000000084d3       0xce ../../src/usb/usb_bot.o
                                        0x2f5 (size before relaxing)
 .debug_str     0x00000000000085a1       0xdd ../../src/usb/usb_pwr.o
                                        0x3a4 (size before relaxing)
 .debug_str     0x000000000000867e       0x25 ../../src/usb/usb_istr.o
                                        0x383 (size before relaxing)
 .debug_str     0x00000000000086a3      0x341 ../../src/pwd-safe/FlashStorage.o
                                        0x5a7 (size before relaxing)
 .debug_str     0x00000000000089e4      0x1df ../../src/pwd-safe/HandleAesStorageKey.o
                                        0x699 (size before relaxing)
 .debug_str     0x0000000000008bc3      0x1c5 ../../src/pwd-safe/password_safe.o
                                        0x5c6 (size before relaxing)
 .debug_str     0x0000000000008d88       0xfe /usr/lib/gcc/arm-none-eabi/4.8/../../../arm-none-eabi/lib/armv7-m/libc.a(lib_a-memcmp.o)
                                        0x19e (size before relaxing)
 .debug_str     0x0000000000008e86       0x59 /usr/lib/gcc/arm-none-eabi/4.8/../../../arm-none-eabi/lib/armv7-m/libc.a(lib_a-memmove.o)
                                        0x1d1 (size before relaxing)
 .debug_str     0x0000000000008edf       0x3b /usr/lib/gcc/arm-none-eabi/4.8/../../../arm-none-eabi/lib/armv7-m/libc.a(lib_a-memset.o)
                                        0x1b2 (size before relaxing)
 .debug_str     0x0000000000008f1a      0x42b /usr/lib/gcc/arm-none-eabi/4.8/../../../arm-none-eabi/lib/armv7-m/libc.a(lib_a-rand.o)
                                        0x566 (size before relaxing)
 .debug_str     0x0000000000009345       0x99 /usr/lib/gcc/arm-none-eabi/4.8/../../../arm-none-eabi/lib/armv7-m/libc.a(lib_a-strcpy.o)
                                        0x1a4 (size before relaxing)
 .debug_str     0x00000000000093de       0x36 /usr/lib/gcc/arm-none-eabi/4.8/../../../arm-none-eabi/lib/armv7-m/libc.a(lib_a-strlen.o)
                                        0x1ab (size before relaxing)
 .debug_str     0x0000000000009414       0xa9 /usr/lib/gcc/arm-none-eabi/4.8/../../../arm-none-eabi/lib/armv7-m/libc.a(lib_a-impure.o)
                                        0x56f (size before relaxing)
 .debug_str     0x00000000000094bd      0x159 /usr/lib/gcc/arm-none-eabi/4.8/armv7-m/libgcc.a(bpabi.o)
                                        0x17e (size before relaxing)
 .debug_str     0x0000000000009616      0x139 /usr/lib/gcc/arm-none-eabi/4.8/armv7-m/libgcc.a(_divdi3.o)
                                        0x22c (size before relaxing)
 .debug_str     0x000000000000974f      0x22d /usr/lib/gcc/arm-none-eabi/4.8/armv7-m/libgcc.a(_udivdi3.o)

.debug_loc      0x0000000000000000    0x16705
 *(.debug_loc)
 .debug_loc     0x0000000000000000      0x24c ../../src/main.o
 .debug_loc     0x000000000000024c      0x479 ../../src/hw_config.o
 .debug_loc     0x00000000000006c5      0x1a5 ../../src/utils/memory_ops.o
 .debug_loc     0x000000000000086a      0x302 ../../src/ccid/Ccid_usb.o
 .debug_loc     0x0000000000000b6c      0xb40 ../../src/ccid/Ifd_protocol.o
 .debug_loc     0x00000000000016ac      0x33c ../../src/ccid/Crd.o
 .debug_loc     0x00000000000019e8      0x43f ../../src/ccid/Ifd_ccid.o
 .debug_loc     0x0000000000001e27      0xff2 ../../src/ccid/CcidLocalAccess.o
 .debug_loc     0x0000000000002e19     0x105b ../../src/ccid/smartcard/smartcard.o
 .debug_loc     0x0000000000003e74      0x3b7 ../../src/ccid/CCIDHID_USB/CCIDHID_usb_prop.o
 .debug_loc     0x000000000000422b      0x1fa ../../src/sd-disk/sd-usb/usb_prop.o
 .debug_loc     0x0000000000004425       0xbb ../../src/stm/stm32f10x_systick.o
 .debug_loc     0x00000000000044e0       0x40 ../../src/stm/stm32f10x_it.o
 .debug_loc     0x0000000000004520      0x33a ../../src/stm/Libraries/CMSIS/Core/CM3/core_cm3.o
 .debug_loc     0x000000000000485a       0x2c ../../src/stm/Libraries/CMSIS/Core/CM3/system_stm32f10x.o
 .debug_loc     0x0000000000004886       0x84 ../../src/stm/Libraries/CMSIS/Core/CM3/startup/gcc/startup_stm32f10x_hd.o
 .debug_loc     0x000000000000490a      0x15d ../../src/stm/Libraries/STM32F10x_StdPeriph_Driver/src/misc.o
 .debug_loc     0x0000000000004a67      0x99f ../../src/stm/Libraries/STM32F10x_StdPeriph_Driver/src/stm32f10x_adc.o
 .debug_loc     0x0000000000005406      0x10e ../../src/stm/Libraries/STM32F10x_StdPeriph_Driver/src/stm32f10x_bkp.o
 .debug_loc     0x0000000000005514      0x822 ../../src/stm/Libraries/STM32F10x_StdPeriph_Driver/src/stm32f10x_can.o
 .debug_loc     0x0000000000005d36       0x75 ../../src/stm/Libraries/STM32F10x_StdPeriph_Driver/src/stm32f10x_crc.o
 .debug_loc     0x0000000000005dab      0x20e ../../src/stm/Libraries/STM32F10x_StdPeriph_Driver/src/stm32f10x_dac.o
 .debug_loc     0x0000000000005fb9       0x3a ../../src/stm/Libraries/STM32F10x_StdPeriph_Driver/src/stm32f10x_dbgmcu.o
 .debug_loc     0x0000000000005ff3      0x197 ../../src/stm/Libraries/STM32F10x_StdPeriph_Driver/src/stm32f10x_dma.o
 .debug_loc     0x000000000000618a      0x184 ../../src/stm/Libraries/STM32F10x_StdPeriph_Driver/src/stm32f10x_exti.o
 .debug_loc     0x000000000000630e      0x963 ../../src/stm/Libraries/STM32F10x_StdPeriph_Driver/src/stm32f10x_flash.o
 .debug_loc     0x0000000000006c71      0x58e ../../src/stm/Libraries/STM32F10x_StdPeriph_Driver/src/stm32f10x_fsmc.o
 .debug_loc     0x00000000000071ff      0x6c7 ../../src/stm/Libraries/STM32F10x_StdPeriph_Driver/src/stm32f10x_gpio.o
 .debug_loc     0x00000000000078c6      0x7d2 ../../src/stm/Libraries/STM32F10x_StdPeriph_Driver/src/stm32f10x_i2c.o
 .debug_loc     0x0000000000008098       0x62 ../../src/stm/Libraries/STM32F10x_StdPeriph_Driver/src/stm32f10x_iwdg.o
 .debug_loc     0x00000000000080fa      0x151 ../../src/stm/Libraries/STM32F10x_StdPeriph_Driver/src/stm32f10x_pwr.o
 .debug_loc     0x000000000000824b      0x7aa ../../src/stm/Libraries/STM32F10x_StdPeriph_Driver/src/stm32f10x_rcc.o
 .debug_loc     0x00000000000089f5      0x20e ../../src/stm/Libraries/STM32F10x_StdPeriph_Driver/src/stm32f10x_rtc.o
 .debug_loc     0x0000000000008c03      0x298 ../../src/stm/Libraries/STM32F10x_StdPeriph_Driver/src/stm32f10x_sdio.o
 .debug_loc     0x0000000000008e9b      0x56a ../../src/stm/Libraries/STM32F10x_StdPeriph_Driver/src/stm32f10x_spi.o
 .debug_loc     0x0000000000009405     0x21a3 ../../src/stm/Libraries/STM32F10x_StdPeriph_Driver/src/stm32f10x_tim.o
 .debug_loc     0x000000000000b5a8      0xb0e ../../src/stm/Libraries/STM32F10x_StdPeriph_Driver/src/stm32f10x_usart.o
 .debug_loc     0x000000000000c0b6       0xf8 ../../src/stm/Libraries/STM32F10x_StdPeriph_Driver/src/stm32f10x_wwdg.o
 .debug_loc     0x000000000000c1ae      0xb18 ../../src/stm/Libraries/STM32_USB-FS-Device_Driver/src/usb_core.o
 .debug_loc     0x000000000000ccc6       0x40 ../../src/stm/Libraries/STM32_USB-FS-Device_Driver/src/usb_init.o
 .debug_loc     0x000000000000cd06      0x1fe ../../src/stm/Libraries/STM32_USB-FS-Device_Driver/src/usb_int.o
 .debug_loc     0x000000000000cf04      0x231 ../../src/stm/Libraries/STM32_USB-FS-Device_Driver/src/usb_mem.o
 .debug_loc     0x000000000000d135      0xbaf ../../src/stm/Libraries/STM32_USB-FS-Device_Driver/src/usb_regs.o
 .debug_loc     0x000000000000dce4     0x18c8 ../../src/crypt/aes/aes.o
 .debug_loc     0x000000000000f5ac      0x655 ../../src/crypt/sha1/sha1.o
 .debug_loc     0x000000000000fc01      0x3cb ../../src/crypt/sha1/hmac-sha1.o
 .debug_loc     0x000000000000ffcc     0x12ef ../../src/hotp/hotp.o
 .debug_loc     0x00000000000112bb      0x43a ../../src/keyboard/keyboard.o
 .debug_loc     0x00000000000116f5     0x16ce ../../src/keyboard/report_protocol.o
 .debug_loc     0x0000000000012dc3      0x146 ../../src/usb/usb_bot.o
 .debug_loc     0x0000000000012f09      0x1ac ../../src/usb/usb_pwr.o
 .debug_loc     0x00000000000130b5       0x20 ../../src/usb/usb_istr.o
 .debug_loc     0x00000000000130d5      0x62e ../../src/pwd-safe/FlashStorage.o
 .debug_loc     0x0000000000013703      0x506 ../../src/pwd-safe/HandleAesStorageKey.o
 .debug_loc     0x0000000000013c09      0xb69 ../../src/pwd-safe/password_safe.o
 .debug_loc     0x0000000000014772       0xe3 /usr/lib/gcc/arm-none-eabi/4.8/../../../arm-none-eabi/lib/armv7-m/libc.a(lib_a-memcmp.o)
 .debug_loc     0x0000000000014855      0x2ca /usr/lib/gcc/arm-none-eabi/4.8/../../../arm-none-eabi/lib/armv7-m/libc.a(lib_a-memmove.o)
 .debug_loc     0x0000000000014b1f      0x18b /usr/lib/gcc/arm-none-eabi/4.8/../../../arm-none-eabi/lib/armv7-m/libc.a(lib_a-memset.o)
 .debug_loc     0x0000000000014caa       0x21 /usr/lib/gcc/arm-none-eabi/4.8/../../../arm-none-eabi/lib/armv7-m/libc.a(lib_a-strcpy.o)
 .debug_loc     0x0000000000014ccb       0x21 /usr/lib/gcc/arm-none-eabi/4.8/../../../arm-none-eabi/lib/armv7-m/libc.a(lib_a-strlen.o)
 .debug_loc     0x0000000000014cec       0xa0 /usr/lib/gcc/arm-none-eabi/4.8/armv7-m/libgcc.a(bpabi.o)
 .debug_loc     0x0000000000014d8c      0xc65 /usr/lib/gcc/arm-none-eabi/4.8/armv7-m/libgcc.a(_divdi3.o)
 .debug_loc     0x00000000000159f1      0xd14 /usr/lib/gcc/arm-none-eabi/4.8/armv7-m/libgcc.a(_udivdi3.o)

.debug_macinfo
 *(.debug_macinfo)

.debug_weaknames
 *(.debug_weaknames)

.debug_funcnames
 *(.debug_funcnames)

.debug_typenames
 *(.debug_typenames)

.debug_varnames
 *(.debug_varnames)
OUTPUT(crypto.elf elf32-littlearm)

.debug_ranges   0x0000000000000000     0x10a8
 .debug_ranges  0x0000000000000000       0xe8 ../../src/main.o
 .debug_ranges  0x00000000000000e8       0xa8 ../../src/hw_config.o
 .debug_ranges  0x0000000000000190       0x48 ../../src/ccid/Ifd_protocol.o
 .debug_ranges  0x00000000000001d8      0x110 ../../src/ccid/Crd.o
 .debug_ranges  0x00000000000002e8      0x118 ../../src/ccid/CcidLocalAccess.o
 .debug_ranges  0x0000000000000400      0x170 ../../src/ccid/smartcard/smartcard.o
 .debug_ranges  0x0000000000000570       0x30 ../../src/ccid/CCIDHID_USB/CCIDHID_usb_prop.o
 .debug_ranges  0x00000000000005a0       0x18 ../../src/sd-disk/sd-usb/usb_prop.o
 .debug_ranges  0x00000000000005b8       0x10 ../../src/stm/Libraries/CMSIS/Core/CM3/core_cm3.o
 .debug_ranges  0x00000000000005c8       0x18 ../../src/stm/Libraries/CMSIS/Core/CM3/system_stm32f10x.o
 .debug_ranges  0x00000000000005e0       0x80 ../../src/stm/Libraries/STM32F10x_StdPeriph_Driver/src/stm32f10x_can.o
 .debug_ranges  0x0000000000000660       0x18 ../../src/stm/Libraries/STM32F10x_StdPeriph_Driver/src/stm32f10x_rcc.o
 .debug_ranges  0x0000000000000678       0x60 ../../src/stm/Libraries/STM32F10x_StdPeriph_Driver/src/stm32f10x_rtc.o
 .debug_ranges  0x00000000000006d8      0x198 ../../src/stm/Libraries/STM32F10x_StdPeriph_Driver/src/stm32f10x_tim.o
 .debug_ranges  0x0000000000000870      0x108 ../../src/stm/Libraries/STM32_USB-FS-Device_Driver/src/usb_core.o
 .debug_ranges  0x0000000000000978      0x1a8 ../../src/stm/Libraries/STM32_USB-FS-Device_Driver/src/usb_regs.o
 .debug_ranges  0x0000000000000b20       0x48 ../../src/crypt/sha1/sha1.o
 .debug_ranges  0x0000000000000b68       0x38 ../../src/hotp/hotp.o
 .debug_ranges  0x0000000000000ba0      0x118 ../../src/keyboard/keyboard.o
 .debug_ranges  0x0000000000000cb8       0x88 ../../src/keyboard/report_protocol.o
 .debug_ranges  0x0000000000000d40       0x30 ../../src/usb/usb_pwr.o
 .debug_ranges  0x0000000000000d70       0x28 ../../src/pwd-safe/HandleAesStorageKey.o
 .debug_ranges  0x0000000000000d98       0xb8 ../../src/pwd-safe/password_safe.o
 .debug_ranges  0x0000000000000e50       0x10 /usr/lib/gcc/arm-none-eabi/4.8/../../../arm-none-eabi/lib/armv7-m/libc.a(lib_a-memcmp.o)
 .debug_ranges  0x0000000000000e60       0x10 /usr/lib/gcc/arm-none-eabi/4.8/../../../arm-none-eabi/lib/armv7-m/libc.a(lib_a-memmove.o)
 .debug_ranges  0x0000000000000e70       0x10 /usr/lib/gcc/arm-none-eabi/4.8/../../../arm-none-eabi/lib/armv7-m/libc.a(lib_a-memset.o)
 .debug_ranges  0x0000000000000e80       0x18 /usr/lib/gcc/arm-none-eabi/4.8/../../../arm-none-eabi/lib/armv7-m/libc.a(lib_a-rand.o)
 .debug_ranges  0x0000000000000e98       0x10 /usr/lib/gcc/arm-none-eabi/4.8/../../../arm-none-eabi/lib/armv7-m/libc.a(lib_a-strcpy.o)
 .debug_ranges  0x0000000000000ea8       0x10 /usr/lib/gcc/arm-none-eabi/4.8/../../../arm-none-eabi/lib/armv7-m/libc.a(lib_a-strlen.o)
 .debug_ranges  0x0000000000000eb8       0xf0 /usr/lib/gcc/arm-none-eabi/4.8/armv7-m/libgcc.a(_divdi3.o)
 .debug_ranges  0x0000000000000fa8      0x100 /usr/lib/gcc/arm-none-eabi/4.8/armv7-m/libgcc.a(_udivdi3.o)

Cross Reference Table

Symbol                                            File
ADC1_2_IRQHandler                                 ../../src/stm/Libraries/CMSIS/Core/CM3/startup/gcc/startup_stm32f10x_hd.o
ADC3_IRQHandler                                   ../../src/stm/Libraries/CMSIS/Core/CM3/startup/gcc/startup_stm32f10x_hd.o
ADC_AnalogWatchdogCmd                             ../../src/stm/Libraries/STM32F10x_StdPeriph_Driver/src/stm32f10x_adc.o
ADC_AnalogWatchdogSingleChannelConfig             ../../src/stm/Libraries/STM32F10x_StdPeriph_Driver/src/stm32f10x_adc.o
ADC_AnalogWatchdogThresholdsConfig                ../../src/stm/Libraries/STM32F10x_StdPeriph_Driver/src/stm32f10x_adc.o
ADC_AutoInjectedConvCmd                           ../../src/stm/Libraries/STM32F10x_StdPeriph_Driver/src/stm32f10x_adc.o
ADC_ClearFlag                                     ../../src/stm/Libraries/STM32F10x_StdPeriph_Driver/src/stm32f10x_adc.o
ADC_ClearITPendingBit                             ../../src/stm/Libraries/STM32F10x_StdPeriph_Driver/src/stm32f10x_adc.o
ADC_Cmd                                           ../../src/stm/Libraries/STM32F10x_StdPeriph_Driver/src/stm32f10x_adc.o
ADC_DMACmd                                        ../../src/stm/Libraries/STM32F10x_StdPeriph_Driver/src/stm32f10x_adc.o
ADC_DeInit                                        ../../src/stm/Libraries/STM32F10x_StdPeriph_Driver/src/stm32f10x_adc.o
ADC_DiscModeChannelCountConfig                    ../../src/stm/Libraries/STM32F10x_StdPeriph_Driver/src/stm32f10x_adc.o
ADC_DiscModeCmd                                   ../../src/stm/Libraries/STM32F10x_StdPeriph_Driver/src/stm32f10x_adc.o
ADC_ExternalTrigConvCmd                           ../../src/stm/Libraries/STM32F10x_StdPeriph_Driver/src/stm32f10x_adc.o
ADC_ExternalTrigInjectedConvCmd                   ../../src/stm/Libraries/STM32F10x_StdPeriph_Driver/src/stm32f10x_adc.o
ADC_ExternalTrigInjectedConvConfig                ../../src/stm/Libraries/STM32F10x_StdPeriph_Driver/src/stm32f10x_adc.o
ADC_GetCalibrationStatus                          ../../src/stm/Libraries/STM32F10x_StdPeriph_Driver/src/stm32f10x_adc.o
ADC_GetConversionValue                            ../../src/stm/Libraries/STM32F10x_StdPeriph_Driver/src/stm32f10x_adc.o
ADC_GetDualModeConversionValue                    ../../src/stm/Libraries/STM32F10x_StdPeriph_Driver/src/stm32f10x_adc.o
ADC_GetFlagStatus                                 ../../src/stm/Libraries/STM32F10x_StdPeriph_Driver/src/stm32f10x_adc.o
ADC_GetITStatus                                   ../../src/stm/Libraries/STM32F10x_StdPeriph_Driver/src/stm32f10x_adc.o
ADC_GetInjectedConversionValue                    ../../src/stm/Libraries/STM32F10x_StdPeriph_Driver/src/stm32f10x_adc.o
ADC_GetResetCalibrationStatus                     ../../src/stm/Libraries/STM32F10x_StdPeriph_Driver/src/stm32f10x_adc.o
ADC_GetSoftwareStartConvStatus                    ../../src/stm/Libraries/STM32F10x_StdPeriph_Driver/src/stm32f10x_adc.o
ADC_GetSoftwareStartInjectedConvCmdStatus         ../../src/stm/Libraries/STM32F10x_StdPeriph_Driver/src/stm32f10x_adc.o
ADC_ITConfig                                      ../../src/stm/Libraries/STM32F10x_StdPeriph_Driver/src/stm32f10x_adc.o
ADC_Init                                          ../../src/stm/Libraries/STM32F10x_StdPeriph_Driver/src/stm32f10x_adc.o
ADC_InjectedChannelConfig                         ../../src/stm/Libraries/STM32F10x_StdPeriph_Driver/src/stm32f10x_adc.o
ADC_InjectedDiscModeCmd                           ../../src/stm/Libraries/STM32F10x_StdPeriph_Driver/src/stm32f10x_adc.o
ADC_InjectedSequencerLengthConfig                 ../../src/stm/Libraries/STM32F10x_StdPeriph_Driver/src/stm32f10x_adc.o
ADC_RegularChannelConfig                          ../../src/stm/Libraries/STM32F10x_StdPeriph_Driver/src/stm32f10x_adc.o
ADC_ResetCalibration                              ../../src/stm/Libraries/STM32F10x_StdPeriph_Driver/src/stm32f10x_adc.o
ADC_SetInjectedOffset                             ../../src/stm/Libraries/STM32F10x_StdPeriph_Driver/src/stm32f10x_adc.o
ADC_SoftwareStartConvCmd                          ../../src/stm/Libraries/STM32F10x_StdPeriph_Driver/src/stm32f10x_adc.o
ADC_SoftwareStartInjectedConvCmd                  ../../src/stm/Libraries/STM32F10x_StdPeriph_Driver/src/stm32f10x_adc.o
ADC_StartCalibration                              ../../src/stm/Libraries/STM32F10x_StdPeriph_Driver/src/stm32f10x_adc.o
ADC_StructInit                                    ../../src/stm/Libraries/STM32F10x_StdPeriph_Driver/src/stm32f10x_adc.o
ADC_TempSensorVrefintCmd                          ../../src/stm/Libraries/STM32F10x_StdPeriph_Driver/src/stm32f10x_adc.o
AbortSequenceNumber                               ../../src/ccid/Ccid_usb.o
                                                  ../../src/ccid/Ifd_ccid.o
AccessTestGPG                                     ../../src/ccid/CcidLocalAccess.o
BKP_ClearFlag                                     ../../src/stm/Libraries/STM32F10x_StdPeriph_Driver/src/stm32f10x_bkp.o
BKP_ClearITPendingBit                             ../../src/stm/Libraries/STM32F10x_StdPeriph_Driver/src/stm32f10x_bkp.o
BKP_DeInit                                        ../../src/stm/Libraries/STM32F10x_StdPeriph_Driver/src/stm32f10x_bkp.o
BKP_GetFlagStatus                                 ../../src/stm/Libraries/STM32F10x_StdPeriph_Driver/src/stm32f10x_bkp.o
BKP_GetITStatus                                   ../../src/stm/Libraries/STM32F10x_StdPeriph_Driver/src/stm32f10x_bkp.o
BKP_ITConfig                                      ../../src/stm/Libraries/STM32F10x_StdPeriph_Driver/src/stm32f10x_bkp.o
BKP_RTCOutputConfig                               ../../src/stm/Libraries/STM32F10x_StdPeriph_Driver/src/stm32f10x_bkp.o
BKP_ReadBackupRegister                            ../../src/stm/Libraries/STM32F10x_StdPeriph_Driver/src/stm32f10x_bkp.o
BKP_SetRTCCalibrationValue                        ../../src/stm/Libraries/STM32F10x_StdPeriph_Driver/src/stm32f10x_bkp.o
BKP_TamperPinCmd                                  ../../src/stm/Libraries/STM32F10x_StdPeriph_Driver/src/stm32f10x_bkp.o
BKP_TamperPinLevelConfig                          ../../src/stm/Libraries/STM32F10x_StdPeriph_Driver/src/stm32f10x_bkp.o
BKP_WriteBackupRegister                           ../../src/stm/Libraries/STM32F10x_StdPeriph_Driver/src/stm32f10x_bkp.o
Bot_Abort                                         ../../src/usb/usb_bot.o
                                                  ../../src/sd-disk/sd-usb/usb_prop.o
Bot_State                                         ../../src/usb/usb_bot.o
                                                  ../../src/sd-disk/sd-usb/usb_prop.o
                                                  ../../src/ccid/CCIDHID_USB/CCIDHID_usb_prop.o
                                                  ../../src/ccid/Ccid_usb.o
BuildNewAesMasterKey_u32                          ../../src/pwd-safe/HandleAesStorageKey.o
BuildNewAesStorageKey_u32                         ../../src/pwd-safe/HandleAesStorageKey.o
BuildNewXorPattern_u32                            ../../src/pwd-safe/HandleAesStorageKey.o
BuildPasswordSafeKey_u32                          ../../src/pwd-safe/password_safe.o
                                                  ../../src/keyboard/report_protocol.o
BuildStorageKeys_u32                              ../../src/pwd-safe/HandleAesStorageKey.o
BulkStatus                                        ../../src/ccid/Ccid_usb.o
Bulk_Data_Buff                                    ../../src/usb/usb_bot.o
                                                  ../../src/ccid/Ccid_usb.o
BusFault_Handler                                  ../../src/stm/stm32f10x_it.o
ByteSwap                                          ../../src/stm/Libraries/STM32_USB-FS-Device_Driver/src/usb_regs.o
                                                  ../../src/stm/Libraries/STM32_USB-FS-Device_Driver/src/usb_core.o
CAN1_RX1_IRQHandler                               ../../src/stm/Libraries/CMSIS/Core/CM3/startup/gcc/startup_stm32f10x_hd.o
CAN1_SCE_IRQHandler                               ../../src/stm/Libraries/CMSIS/Core/CM3/startup/gcc/startup_stm32f10x_hd.o
CAN_CancelTransmit                                ../../src/stm/Libraries/STM32F10x_StdPeriph_Driver/src/stm32f10x_can.o
CAN_ClearFlag                                     ../../src/stm/Libraries/STM32F10x_StdPeriph_Driver/src/stm32f10x_can.o
CAN_ClearITPendingBit                             ../../src/stm/Libraries/STM32F10x_StdPeriph_Driver/src/stm32f10x_can.o
CAN_DBGFreeze                                     ../../src/stm/Libraries/STM32F10x_StdPeriph_Driver/src/stm32f10x_can.o
CAN_DeInit                                        ../../src/stm/Libraries/STM32F10x_StdPeriph_Driver/src/stm32f10x_can.o
CAN_FIFORelease                                   ../../src/stm/Libraries/STM32F10x_StdPeriph_Driver/src/stm32f10x_can.o
CAN_FilterInit                                    ../../src/stm/Libraries/STM32F10x_StdPeriph_Driver/src/stm32f10x_can.o
CAN_GetFlagStatus                                 ../../src/stm/Libraries/STM32F10x_StdPeriph_Driver/src/stm32f10x_can.o
CAN_GetITStatus                                   ../../src/stm/Libraries/STM32F10x_StdPeriph_Driver/src/stm32f10x_can.o
CAN_ITConfig                                      ../../src/stm/Libraries/STM32F10x_StdPeriph_Driver/src/stm32f10x_can.o
CAN_Init                                          ../../src/stm/Libraries/STM32F10x_StdPeriph_Driver/src/stm32f10x_can.o
CAN_MessagePending                                ../../src/stm/Libraries/STM32F10x_StdPeriph_Driver/src/stm32f10x_can.o
CAN_Receive                                       ../../src/stm/Libraries/STM32F10x_StdPeriph_Driver/src/stm32f10x_can.o
CAN_Sleep                                         ../../src/stm/Libraries/STM32F10x_StdPeriph_Driver/src/stm32f10x_can.o
CAN_StructInit                                    ../../src/stm/Libraries/STM32F10x_StdPeriph_Driver/src/stm32f10x_can.o
CAN_Transmit                                      ../../src/stm/Libraries/STM32F10x_StdPeriph_Driver/src/stm32f10x_can.o
CAN_TransmitStatus                                ../../src/stm/Libraries/STM32F10x_StdPeriph_Driver/src/stm32f10x_can.o
CAN_WakeUp                                        ../../src/stm/Libraries/STM32F10x_StdPeriph_Driver/src/stm32f10x_can.o
CBW                                               ../../src/usb/usb_bot.o
                                                  ../../src/sd-disk/sd-usb/usb_prop.o
                                                  ../../src/ccid/CCIDHID_USB/CCIDHID_usb_prop.o
CBW_Decode                                        ../../src/usb/usb_bot.o
CCID_Bot_Abort                                    ../../src/ccid/Ccid_usb.o
CCID_BulkInMessage                                ../../src/ccid/Ccid_usb.o
                                                  ../../src/usb/usb_endp.o
CCID_BulkOutMessage                               ../../src/ccid/Ccid_usb.o
                                                  ../../src/usb/usb_endp.o
CCID_CheckUsbCommunication                        ../../src/ccid/Ccid_usb.o
                                                  ../../src/ccid/smartcard/smartcard.o
                                                  ../../src/main.o
CCID_ConfigDescriptor                             ../../src/ccid/CCIDHID_USB/CCIDHID_usb_desc.o
                                                  ../../src/ccid/CCIDHID_USB/CCIDHID_usb_prop.o
CCID_Config_Descriptor                            ../../src/ccid/CCIDHID_USB/CCIDHID_usb_prop.o
                                                  ../../src/stm/Libraries/STM32_USB-FS-Device_Driver/src/usb_init.o
CCID_DeviceDescriptor                             ../../src/ccid/CCIDHID_USB/CCIDHID_usb_desc.o
                                                  ../../src/ccid/CCIDHID_USB/CCIDHID_usb_prop.o
CCID_Device_Descriptor                            ../../src/ccid/CCIDHID_USB/CCIDHID_usb_prop.o
                                                  ../../src/stm/Libraries/STM32_USB-FS-Device_Driver/src/usb_init.o
CCID_Device_Info                                  ../../src/ccid/CCIDHID_USB/CCIDHID_usb_prop.o
                                                  ../../src/stm/Libraries/STM32_USB-FS-Device_Driver/src/usb_init.o
CCID_Device_Property                              ../../src/ccid/CCIDHID_USB/CCIDHID_usb_prop.o
                                                  ../../src/stm/Libraries/STM32_USB-FS-Device_Driver/src/usb_init.o
CCID_Device_Table                                 ../../src/ccid/CCIDHID_USB/CCIDHID_usb_prop.o
CCID_DispatchMessage                              ../../src/ccid/Ccid_usb.o
CCID_GetCardState                                 ../../src/ccid/Ccid_usb.o
CCID_Init                                         ../../src/ccid/Ccid_usb.o
                                                  ../../src/hw_config.o
CCID_Init_IT                                      ../../src/ccid/Ccid_usb.o
CCID_IntMessage                                   ../../src/ccid/Ccid_usb.o
CCID_SendCardDetect                               ../../src/ccid/Ccid_usb.o
                                                  ../../src/main.o
CCID_SetCardState                                 ../../src/ccid/Ccid_usb.o
                                                  ../../src/ccid/smartcard/smartcard.o
CCID_Storage_Out                                  ../../src/ccid/Ccid_usb.o
CCID_StringInterface                              ../../src/ccid/CCIDHID_USB/CCIDHID_usb_desc.o
                                                  ../../src/ccid/CCIDHID_USB/CCIDHID_usb_prop.o
CCID_StringLangID                                 ../../src/ccid/CCIDHID_USB/CCIDHID_usb_desc.o
                                                  ../../src/ccid/CCIDHID_USB/CCIDHID_usb_prop.o
CCID_StringProduct                                ../../src/ccid/CCIDHID_USB/CCIDHID_usb_desc.o
                                                  ../../src/ccid/CCIDHID_USB/CCIDHID_usb_prop.o
CCID_StringSerial                                 ../../src/ccid/CCIDHID_USB/CCIDHID_usb_desc.o
                                                  ../../src/ccid/CCIDHID_USB/CCIDHID_usb_prop.o
                                                  ../../src/hw_config.o
CCID_StringVendor                                 ../../src/ccid/CCIDHID_USB/CCIDHID_usb_desc.o
                                                  ../../src/ccid/CCIDHID_USB/CCIDHID_usb_prop.o
CCID_String_Descriptor                            ../../src/ccid/CCIDHID_USB/CCIDHID_usb_prop.o
                                                  ../../src/stm/Libraries/STM32_USB-FS-Device_Driver/src/usb_init.o
CCID_Suspend_IT                                   ../../src/ccid/Ccid_usb.o
CCID_User_Standard_Requests                       ../../src/ccid/CCIDHID_USB/CCIDHID_usb_prop.o
                                                  ../../src/stm/Libraries/STM32_USB-FS-Device_Driver/src/usb_init.o
CHV1                                              ../../src/ccid/smartcard/smartcard.o
CHV1Status                                        ../../src/ccid/smartcard/smartcard.o
CRC_CalcBlockCRC                                  ../../src/stm/Libraries/STM32F10x_StdPeriph_Driver/src/stm32f10x_crc.o
                                                  ../../src/keyboard/report_protocol.o
CRC_CalcCRC                                       ../../src/stm/Libraries/STM32F10x_StdPeriph_Driver/src/stm32f10x_crc.o
CRC_GetCRC                                        ../../src/stm/Libraries/STM32F10x_StdPeriph_Driver/src/stm32f10x_crc.o
CRC_GetIDRegister                                 ../../src/stm/Libraries/STM32F10x_StdPeriph_Driver/src/stm32f10x_crc.o
CRC_ResetDR                                       ../../src/stm/Libraries/STM32F10x_StdPeriph_Driver/src/stm32f10x_crc.o
                                                  ../../src/keyboard/report_protocol.o
CRC_SetIDRegister                                 ../../src/stm/Libraries/STM32F10x_StdPeriph_Driver/src/stm32f10x_crc.o
CRD_CharRepeatOff                                 ../../src/ccid/Crd.o
CRD_CharRepeatOn                                  ../../src/ccid/Crd.o
CRD_EndReceive                                    ../../src/ccid/Crd.o
CRD_EndTransmit                                   ../../src/ccid/Crd.o
CRD_GetClockStatus                                ../../src/ccid/Crd.o
                                                  ../../src/ccid/Ifd_ccid.o
CRD_GetConvention                                 ../../src/ccid/Crd.o
                                                  ../../src/ccid/Ifd_protocol.o
CRD_GetHwError                                    ../../src/ccid/Crd.o
                                                  ../../src/ccid/Ifd_ccid.o
CRD_GetSlotStatus                                 ../../src/ccid/Crd.o
                                                  ../../src/ccid/Ifd_ccid.o
CRD_Init                                          ../../src/ccid/Crd.o
CRD_InitReceive                                   ../../src/ccid/Crd.o
CRD_InitTransmit                                  ../../src/ccid/Crd.o
CRD_NumberOfBytesToTransmit                       ../../src/ccid/Crd.o
CRD_SendCommand                                   ../../src/ccid/smartcard/smartcard.o
                                                  ../../src/ccid/CcidLocalAccess.o
                                                  ../../src/ccid/Ifd_protocol.o
CRD_SetClock                                      ../../src/ccid/Crd.o
                                                  ../../src/ccid/Ifd_protocol.o
CRD_SetConvention                                 ../../src/ccid/Crd.o
CRD_SetEtu                                        ../../src/ccid/Crd.o
                                                  ../../src/ccid/Ifd_protocol.o
CRD_SetGuardTime                                  ../../src/ccid/Crd.o
                                                  ../../src/ccid/Ifd_protocol.o
CRD_SetMode                                       ../../src/ccid/Crd.o
CRD_SetWaitingTime                                ../../src/ccid/Crd.o
                                                  ../../src/ccid/Ifd_protocol.o
CRD_StartWaitingTime                              ../../src/ccid/Crd.o
CRD_StopWaitingTime                               ../../src/ccid/Crd.o
CRD_VccOff                                        ../../src/ccid/Crd.o
CRD_VccOff_IT                                     ../../src/ccid/Crd.o
                                                  ../../src/ccid/Ccid_usb.o
CRD_VccOn                                         ../../src/ccid/Crd.o
CRD_WaitingTime                                   ../../src/ccid/Crd.o
CSW                                               ../../src/usb/usb_bot.o
CTR_HP                                            ../../src/stm/Libraries/STM32_USB-FS-Device_Driver/src/usb_int.o
                                                  ../../src/stm/stm32f10x_it.o
CTR_LP                                            ../../src/stm/Libraries/STM32_USB-FS-Device_Driver/src/usb_int.o
                                                  ../../src/usb/usb_istr.o
CcidAesDec                                        ../../src/ccid/CcidLocalAccess.o
CcidAesDecSub                                     ../../src/ccid/CcidLocalAccess.o
CcidChangePin                                     ../../src/ccid/CcidLocalAccess.o
CcidClassRequestAbort                             ../../src/ccid/Ccid_usb.o
CcidClassRequestGetClockFrequencies               ../../src/ccid/Ccid_usb.o
CcidClassRequestGetDataRates                      ../../src/ccid/Ccid_usb.o
CcidDecipher                                      ../../src/ccid/CcidLocalAccess.o
CcidGetChallenge                                  ../../src/ccid/CcidLocalAccess.o
CcidGetData                                       ../../src/ccid/CcidLocalAccess.o
CcidLocalAccessTest                               ../../src/ccid/CcidLocalAccess.o
CcidPutAesKey                                     ../../src/ccid/CcidLocalAccess.o
CcidReset                                         ../../src/ccid/CcidLocalAccess.o
CcidSelectOpenPGPApp                              ../../src/ccid/CcidLocalAccess.o
CcidVerifyPin                                     ../../src/ccid/CcidLocalAccess.o
                                                  ../../src/pwd-safe/password_safe.o
                                                  ../../src/keyboard/report_protocol.o
CheckStorageKey_u8                                ../../src/pwd-safe/HandleAesStorageKey.o
ClearDTOG_RX                                      ../../src/stm/Libraries/STM32_USB-FS-Device_Driver/src/usb_regs.o
                                                  ../../src/stm/Libraries/STM32_USB-FS-Device_Driver/src/usb_core.o
                                                  ../../src/sd-disk/sd-usb/usb_prop.o
                                                  ../../src/ccid/CCIDHID_USB/CCIDHID_usb_prop.o
ClearDTOG_TX                                      ../../src/stm/Libraries/STM32_USB-FS-Device_Driver/src/usb_regs.o
                                                  ../../src/stm/Libraries/STM32_USB-FS-Device_Driver/src/usb_core.o
                                                  ../../src/sd-disk/sd-usb/usb_prop.o
                                                  ../../src/ccid/CCIDHID_USB/CCIDHID_usb_prop.o
ClearEPDoubleBuff                                 ../../src/stm/Libraries/STM32_USB-FS-Device_Driver/src/usb_regs.o
ClearEP_CTR_RX                                    ../../src/stm/Libraries/STM32_USB-FS-Device_Driver/src/usb_regs.o
ClearEP_CTR_TX                                    ../../src/stm/Libraries/STM32_USB-FS-Device_Driver/src/usb_regs.o
ClearEP_KIND                                      ../../src/stm/Libraries/STM32_USB-FS-Device_Driver/src/usb_regs.o
ClearStickKeysNotInitatedToFlash                  ../../src/pwd-safe/FlashStorage.o
                                                  ../../src/pwd-safe/HandleAesStorageKey.o
Clear_Status_Out                                  ../../src/stm/Libraries/STM32_USB-FS-Device_Driver/src/usb_regs.o
                                                  ../../src/sd-disk/sd-usb/usb_prop.o
                                                  ../../src/ccid/CCIDHID_USB/CCIDHID_usb_prop.o
CmdNotSupported                                   ../../src/ccid/Ifd_ccid.o
                                                  ../../src/ccid/Ccid_usb.o
Config_Descriptor                                 ../../src/sd-disk/sd-usb/usb_prop.o
                                                  ../../src/stm/Libraries/STM32_USB-FS-Device_Driver/src/usb_init.o
                                                  ../../src/ccid/CCIDHID_USB/CCIDHID_usb_prop.o
CrdBufferSize                                     ../../src/ccid/Crd.o
CrdFlags                                          ../../src/ccid/Crd.o
                                                  ../../src/ccid/Ccid_usb.o
CrdNbData                                         ../../src/ccid/Crd.o
DAC_Cmd                                           ../../src/stm/Libraries/STM32F10x_StdPeriph_Driver/src/stm32f10x_dac.o
DAC_DMACmd                                        ../../src/stm/Libraries/STM32F10x_StdPeriph_Driver/src/stm32f10x_dac.o
DAC_DeInit                                        ../../src/stm/Libraries/STM32F10x_StdPeriph_Driver/src/stm32f10x_dac.o
DAC_DualSoftwareTriggerCmd                        ../../src/stm/Libraries/STM32F10x_StdPeriph_Driver/src/stm32f10x_dac.o
DAC_GetDataOutputValue                            ../../src/stm/Libraries/STM32F10x_StdPeriph_Driver/src/stm32f10x_dac.o
DAC_Init                                          ../../src/stm/Libraries/STM32F10x_StdPeriph_Driver/src/stm32f10x_dac.o
DAC_SetChannel1Data                               ../../src/stm/Libraries/STM32F10x_StdPeriph_Driver/src/stm32f10x_dac.o
DAC_SetChannel2Data                               ../../src/stm/Libraries/STM32F10x_StdPeriph_Driver/src/stm32f10x_dac.o
DAC_SetDualChannelData                            ../../src/stm/Libraries/STM32F10x_StdPeriph_Driver/src/stm32f10x_dac.o
DAC_SoftwareTriggerCmd                            ../../src/stm/Libraries/STM32F10x_StdPeriph_Driver/src/stm32f10x_dac.o
DAC_StructInit                                    ../../src/stm/Libraries/STM32F10x_StdPeriph_Driver/src/stm32f10x_dac.o
DAC_WaveGenerationCmd                             ../../src/stm/Libraries/STM32F10x_StdPeriph_Driver/src/stm32f10x_dac.o
DBGMCU_Config                                     ../../src/stm/Libraries/STM32F10x_StdPeriph_Driver/src/stm32f10x_dbgmcu.o
DBGMCU_GetDEVID                                   ../../src/stm/Libraries/STM32F10x_StdPeriph_Driver/src/stm32f10x_dbgmcu.o
DBGMCU_GetREVID                                   ../../src/stm/Libraries/STM32F10x_StdPeriph_Driver/src/stm32f10x_dbgmcu.o
DMA1_Channel1_IRQHandler                          ../../src/stm/Libraries/CMSIS/Core/CM3/startup/gcc/startup_stm32f10x_hd.o
DMA1_Channel2_IRQHandler                          ../../src/stm/Libraries/CMSIS/Core/CM3/startup/gcc/startup_stm32f10x_hd.o
DMA1_Channel3_IRQHandler                          ../../src/stm/Libraries/CMSIS/Core/CM3/startup/gcc/startup_stm32f10x_hd.o
DMA1_Channel4_IRQHandler                          ../../src/stm/Libraries/CMSIS/Core/CM3/startup/gcc/startup_stm32f10x_hd.o
DMA1_Channel5_IRQHandler                          ../../src/stm/Libraries/CMSIS/Core/CM3/startup/gcc/startup_stm32f10x_hd.o
DMA1_Channel6_IRQHandler                          ../../src/stm/Libraries/CMSIS/Core/CM3/startup/gcc/startup_stm32f10x_hd.o
DMA1_Channel7_IRQHandler                          ../../src/stm/Libraries/CMSIS/Core/CM3/startup/gcc/startup_stm32f10x_hd.o
DMA2_Channel1_IRQHandler                          ../../src/stm/Libraries/CMSIS/Core/CM3/startup/gcc/startup_stm32f10x_hd.o
DMA2_Channel2_IRQHandler                          ../../src/stm/Libraries/CMSIS/Core/CM3/startup/gcc/startup_stm32f10x_hd.o
DMA2_Channel3_IRQHandler                          ../../src/stm/Libraries/CMSIS/Core/CM3/startup/gcc/startup_stm32f10x_hd.o
DMA2_Channel4_5_IRQHandler                        ../../src/stm/Libraries/CMSIS/Core/CM3/startup/gcc/startup_stm32f10x_hd.o
DMA_ClearFlag                                     ../../src/stm/Libraries/STM32F10x_StdPeriph_Driver/src/stm32f10x_dma.o
DMA_ClearITPendingBit                             ../../src/stm/Libraries/STM32F10x_StdPeriph_Driver/src/stm32f10x_dma.o
DMA_Cmd                                           ../../src/stm/Libraries/STM32F10x_StdPeriph_Driver/src/stm32f10x_dma.o
DMA_DeInit                                        ../../src/stm/Libraries/STM32F10x_StdPeriph_Driver/src/stm32f10x_dma.o
DMA_GetCurrDataCounter                            ../../src/stm/Libraries/STM32F10x_StdPeriph_Driver/src/stm32f10x_dma.o
DMA_GetFlagStatus                                 ../../src/stm/Libraries/STM32F10x_StdPeriph_Driver/src/stm32f10x_dma.o
DMA_GetITStatus                                   ../../src/stm/Libraries/STM32F10x_StdPeriph_Driver/src/stm32f10x_dma.o
DMA_ITConfig                                      ../../src/stm/Libraries/STM32F10x_StdPeriph_Driver/src/stm32f10x_dma.o
DMA_Init                                          ../../src/stm/Libraries/STM32F10x_StdPeriph_Driver/src/stm32f10x_dma.o
DMA_StructInit                                    ../../src/stm/Libraries/STM32F10x_StdPeriph_Driver/src/stm32f10x_dma.o
Data_Len                                          ../../src/usb/usb_bot.o
                                                  ../../src/ccid/Ccid_usb.o
Data_Mul_MaxPacketSize                            ../../src/stm/Libraries/STM32_USB-FS-Device_Driver/src/usb_core.o
DebugMon_Handler                                  ../../src/stm/stm32f10x_it.o
DecryptKeyViaSmartcard_u32                        ../../src/pwd-safe/HandleAesStorageKey.o
                                                  ../../src/pwd-safe/password_safe.o
Default_Handler                                   ../../src/stm/Libraries/CMSIS/Core/CM3/startup/gcc/startup_stm32f10x_hd.o
Delay                                             ../../src/ccid/smartcard/smartcard.o
Delay1Ms                                          ../../src/tools.o
Delay1Ms_Counting                                 ../../src/tools.o
DelayMs                                           ../../src/tools.o
                                                  ../../src/pwd-safe/HandleAesStorageKey.o
Delay_noUSBCheck                                  ../../src/ccid/smartcard/smartcard.o
Device_Descriptor                                 ../../src/sd-disk/sd-usb/usb_prop.o
                                                  ../../src/stm/Libraries/STM32_USB-FS-Device_Driver/src/usb_init.o
                                                  ../../src/ccid/CCIDHID_USB/CCIDHID_usb_prop.o
Device_Info                                       ../../src/stm/Libraries/STM32_USB-FS-Device_Driver/src/usb_init.o
                                                  ../../src/sd-disk/sd-usb/usb_prop.o
                                                  ../../src/ccid/CCIDHID_USB/CCIDHID_usb_prop.o
                                                  ../../src/hw_config.o
Device_Property                                   ../../src/sd-disk/sd-usb/usb_prop.o
                                                  ../../src/usb/usb_istr.o
                                                  ../../src/stm/Libraries/STM32_USB-FS-Device_Driver/src/usb_init.o
                                                  ../../src/stm/Libraries/STM32_USB-FS-Device_Driver/src/usb_core.o
                                                  ../../src/ccid/CCIDHID_USB/CCIDHID_usb_prop.o
Device_Table                                      ../../src/sd-disk/sd-usb/usb_prop.o
                                                  ../../src/stm/Libraries/STM32_USB-FS-Device_Driver/src/usb_core.o
DisableFirmwareDownloadPort                       ../../src/hw_config.o
DisableSmartcardLED                               ../../src/hw_config.o
Dmul64vsDI                                        ../../src/ccid/Ifd_protocol.o
EP1_IN_Callback                                   ../../src/usb/usb_endp.o
                                                  ../../src/usb/usb_istr.o
EP2_IN_Callback                                   ../../src/usb/usb_endp.o
                                                  ../../src/usb/usb_istr.o
EP2_OUT_Callback                                  ../../src/usb/usb_endp.o
                                                  ../../src/usb/usb_istr.o
EP4_IN_Callback                                   ../../src/usb/usb_endp.o
                                                  ../../src/usb/usb_istr.o
EPindex                                           ../../src/stm/Libraries/STM32_USB-FS-Device_Driver/src/usb_init.o
                                                  ../../src/stm/Libraries/STM32_USB-FS-Device_Driver/src/usb_int.o
EXTI0_IRQHandler                                  ../../src/stm/Libraries/CMSIS/Core/CM3/startup/gcc/startup_stm32f10x_hd.o
EXTI15_10_IRQHandler                              ../../src/stm/Libraries/CMSIS/Core/CM3/startup/gcc/startup_stm32f10x_hd.o
EXTI1_IRQHandler                                  ../../src/stm/Libraries/CMSIS/Core/CM3/startup/gcc/startup_stm32f10x_hd.o
EXTI2_IRQHandler                                  ../../src/stm/Libraries/CMSIS/Core/CM3/startup/gcc/startup_stm32f10x_hd.o
EXTI3_IRQHandler                                  ../../src/stm/Libraries/CMSIS/Core/CM3/startup/gcc/startup_stm32f10x_hd.o
EXTI4_IRQHandler                                  ../../src/stm/Libraries/CMSIS/Core/CM3/startup/gcc/startup_stm32f10x_hd.o
EXTI9_5_IRQHandler                                ../../src/stm/Libraries/CMSIS/Core/CM3/startup/gcc/startup_stm32f10x_hd.o
EXTI_ClearFlag                                    ../../src/stm/Libraries/STM32F10x_StdPeriph_Driver/src/stm32f10x_exti.o
EXTI_ClearITPendingBit                            ../../src/stm/Libraries/STM32F10x_StdPeriph_Driver/src/stm32f10x_exti.o
EXTI_DeInit                                       ../../src/stm/Libraries/STM32F10x_StdPeriph_Driver/src/stm32f10x_exti.o
EXTI_GenerateSWInterrupt                          ../../src/stm/Libraries/STM32F10x_StdPeriph_Driver/src/stm32f10x_exti.o
EXTI_GetFlagStatus                                ../../src/stm/Libraries/STM32F10x_StdPeriph_Driver/src/stm32f10x_exti.o
EXTI_GetITStatus                                  ../../src/stm/Libraries/STM32F10x_StdPeriph_Driver/src/stm32f10x_exti.o
EXTI_Init                                         ../../src/stm/Libraries/STM32F10x_StdPeriph_Driver/src/stm32f10x_exti.o
EXTI_StructInit                                   ../../src/stm/Libraries/STM32F10x_StdPeriph_Driver/src/stm32f10x_exti.o
EnableButton                                      ../../src/hw_config.o
EnableOATHLED                                     ../../src/hw_config.o
EnableSmartcardLED                                ../../src/hw_config.o
EnableTimer2                                      ../../src/hw_config.o
Enter_LowPowerMode                                ../../src/hw_config.o
                                                  ../../src/usb/usb_pwr.o
EraseLocalFlashKeyValues_u32                      ../../src/pwd-safe/FlashStorage.o
                                                  ../../src/pwd-safe/HandleAesStorageKey.o
                                                  ../../src/ccid/CcidLocalAccess.o
EraseStoreData_au8                                ../../src/pwd-safe/FlashStorage.o
FLASH_ClearFlag                                   ../../src/stm/Libraries/STM32F10x_StdPeriph_Driver/src/stm32f10x_flash.o
FLASH_EnableWriteProtection                       ../../src/stm/Libraries/STM32F10x_StdPeriph_Driver/src/stm32f10x_flash.o
FLASH_EraseAllPages                               ../../src/stm/Libraries/STM32F10x_StdPeriph_Driver/src/stm32f10x_flash.o
FLASH_EraseOptionBytes                            ../../src/stm/Libraries/STM32F10x_StdPeriph_Driver/src/stm32f10x_flash.o
FLASH_ErasePage                                   ../../src/stm/Libraries/STM32F10x_StdPeriph_Driver/src/stm32f10x_flash.o
                                                  ../../src/pwd-safe/password_safe.o
                                                  ../../src/pwd-safe/FlashStorage.o
                                                  ../../src/hotp/hotp.o
FLASH_GetFlagStatus                               ../../src/stm/Libraries/STM32F10x_StdPeriph_Driver/src/stm32f10x_flash.o
FLASH_GetPrefetchBufferStatus                     ../../src/stm/Libraries/STM32F10x_StdPeriph_Driver/src/stm32f10x_flash.o
FLASH_GetReadOutProtectionStatus                  ../../src/stm/Libraries/STM32F10x_StdPeriph_Driver/src/stm32f10x_flash.o
FLASH_GetStatus                                   ../../src/stm/Libraries/STM32F10x_StdPeriph_Driver/src/stm32f10x_flash.o
FLASH_GetUserOptionByte                           ../../src/stm/Libraries/STM32F10x_StdPeriph_Driver/src/stm32f10x_flash.o
FLASH_GetWriteProtectionOptionByte                ../../src/stm/Libraries/STM32F10x_StdPeriph_Driver/src/stm32f10x_flash.o
FLASH_HalfCycleAccessCmd                          ../../src/stm/Libraries/STM32F10x_StdPeriph_Driver/src/stm32f10x_flash.o
FLASH_IRQHandler                                  ../../src/stm/Libraries/CMSIS/Core/CM3/startup/gcc/startup_stm32f10x_hd.o
FLASH_ITConfig                                    ../../src/stm/Libraries/STM32F10x_StdPeriph_Driver/src/stm32f10x_flash.o
FLASH_Lock                                        ../../src/stm/Libraries/STM32F10x_StdPeriph_Driver/src/stm32f10x_flash.o
                                                  ../../src/pwd-safe/password_safe.o
                                                  ../../src/pwd-safe/FlashStorage.o
                                                  ../../src/hotp/hotp.o
FLASH_PrefetchBufferCmd                           ../../src/stm/Libraries/STM32F10x_StdPeriph_Driver/src/stm32f10x_flash.o
                                                  ../../src/ccid/smartcard/smartcard.o
FLASH_ProgramHalfWord                             ../../src/stm/Libraries/STM32F10x_StdPeriph_Driver/src/stm32f10x_flash.o
                                                  ../../src/hotp/hotp.o
FLASH_ProgramOptionByteData                       ../../src/stm/Libraries/STM32F10x_StdPeriph_Driver/src/stm32f10x_flash.o
FLASH_ProgramWord                                 ../../src/stm/Libraries/STM32F10x_StdPeriph_Driver/src/stm32f10x_flash.o
                                                  ../../src/hotp/hotp.o
FLASH_ReadOutProtection                           ../../src/stm/Libraries/STM32F10x_StdPeriph_Driver/src/stm32f10x_flash.o
FLASH_SetLatency                                  ../../src/stm/Libraries/STM32F10x_StdPeriph_Driver/src/stm32f10x_flash.o
                                                  ../../src/ccid/smartcard/smartcard.o
FLASH_Unlock                                      ../../src/stm/Libraries/STM32F10x_StdPeriph_Driver/src/stm32f10x_flash.o
                                                  ../../src/pwd-safe/password_safe.o
                                                  ../../src/pwd-safe/FlashStorage.o
                                                  ../../src/hotp/hotp.o
FLASH_UserOptionByteConfig                        ../../src/stm/Libraries/STM32F10x_StdPeriph_Driver/src/stm32f10x_flash.o
FLASH_WaitForLastOperation                        ../../src/stm/Libraries/STM32F10x_StdPeriph_Driver/src/stm32f10x_flash.o
FSMC_ClearFlag                                    ../../src/stm/Libraries/STM32F10x_StdPeriph_Driver/src/stm32f10x_fsmc.o
FSMC_ClearITPendingBit                            ../../src/stm/Libraries/STM32F10x_StdPeriph_Driver/src/stm32f10x_fsmc.o
FSMC_GetECC                                       ../../src/stm/Libraries/STM32F10x_StdPeriph_Driver/src/stm32f10x_fsmc.o
FSMC_GetFlagStatus                                ../../src/stm/Libraries/STM32F10x_StdPeriph_Driver/src/stm32f10x_fsmc.o
FSMC_GetITStatus                                  ../../src/stm/Libraries/STM32F10x_StdPeriph_Driver/src/stm32f10x_fsmc.o
FSMC_IRQHandler                                   ../../src/stm/Libraries/CMSIS/Core/CM3/startup/gcc/startup_stm32f10x_hd.o
FSMC_ITConfig                                     ../../src/stm/Libraries/STM32F10x_StdPeriph_Driver/src/stm32f10x_fsmc.o
FSMC_NANDCmd                                      ../../src/stm/Libraries/STM32F10x_StdPeriph_Driver/src/stm32f10x_fsmc.o
FSMC_NANDDeInit                                   ../../src/stm/Libraries/STM32F10x_StdPeriph_Driver/src/stm32f10x_fsmc.o
FSMC_NANDECCCmd                                   ../../src/stm/Libraries/STM32F10x_StdPeriph_Driver/src/stm32f10x_fsmc.o
FSMC_NANDInit                                     ../../src/stm/Libraries/STM32F10x_StdPeriph_Driver/src/stm32f10x_fsmc.o
FSMC_NANDStructInit                               ../../src/stm/Libraries/STM32F10x_StdPeriph_Driver/src/stm32f10x_fsmc.o
FSMC_NORSRAMCmd                                   ../../src/stm/Libraries/STM32F10x_StdPeriph_Driver/src/stm32f10x_fsmc.o
FSMC_NORSRAMDeInit                                ../../src/stm/Libraries/STM32F10x_StdPeriph_Driver/src/stm32f10x_fsmc.o
FSMC_NORSRAMInit                                  ../../src/stm/Libraries/STM32F10x_StdPeriph_Driver/src/stm32f10x_fsmc.o
FSMC_NORSRAMStructInit                            ../../src/stm/Libraries/STM32F10x_StdPeriph_Driver/src/stm32f10x_fsmc.o
FSMC_PCCARDCmd                                    ../../src/stm/Libraries/STM32F10x_StdPeriph_Driver/src/stm32f10x_fsmc.o
FSMC_PCCARDDeInit                                 ../../src/stm/Libraries/STM32F10x_StdPeriph_Driver/src/stm32f10x_fsmc.o
FSMC_PCCARDInit                                   ../../src/stm/Libraries/STM32F10x_StdPeriph_Driver/src/stm32f10x_fsmc.o
FSMC_PCCARDStructInit                             ../../src/stm/Libraries/STM32F10x_StdPeriph_Driver/src/stm32f10x_fsmc.o
FreeUserBuffer                                    ../../src/stm/Libraries/STM32_USB-FS-Device_Driver/src/usb_regs.o
FvsFI                                             ../../src/ccid/Ifd_protocol.o
GPIO_AFIODeInit                                   ../../src/stm/Libraries/STM32F10x_StdPeriph_Driver/src/stm32f10x_gpio.o
GPIO_Configuration_Smartcard                      ../../src/ccid/smartcard/smartcard.o
GPIO_DeInit                                       ../../src/stm/Libraries/STM32F10x_StdPeriph_Driver/src/stm32f10x_gpio.o
GPIO_EXTILineConfig                               ../../src/stm/Libraries/STM32F10x_StdPeriph_Driver/src/stm32f10x_gpio.o
GPIO_EventOutputCmd                               ../../src/stm/Libraries/STM32F10x_StdPeriph_Driver/src/stm32f10x_gpio.o
GPIO_EventOutputConfig                            ../../src/stm/Libraries/STM32F10x_StdPeriph_Driver/src/stm32f10x_gpio.o
GPIO_Init                                         ../../src/stm/Libraries/STM32F10x_StdPeriph_Driver/src/stm32f10x_gpio.o
                                                  ../../src/ccid/smartcard/smartcard.o
                                                  ../../src/hw_config.o
                                                  ../../src/main.o
GPIO_PinLockConfig                                ../../src/stm/Libraries/STM32F10x_StdPeriph_Driver/src/stm32f10x_gpio.o
GPIO_PinRemapConfig                               ../../src/stm/Libraries/STM32F10x_StdPeriph_Driver/src/stm32f10x_gpio.o
                                                  ../../src/ccid/smartcard/smartcard.o
GPIO_ReadInputData                                ../../src/stm/Libraries/STM32F10x_StdPeriph_Driver/src/stm32f10x_gpio.o
GPIO_ReadInputDataBit                             ../../src/stm/Libraries/STM32F10x_StdPeriph_Driver/src/stm32f10x_gpio.o
                                                  ../../src/hw_config.o
GPIO_ReadOutputData                               ../../src/stm/Libraries/STM32F10x_StdPeriph_Driver/src/stm32f10x_gpio.o
GPIO_ReadOutputDataBit                            ../../src/stm/Libraries/STM32F10x_StdPeriph_Driver/src/stm32f10x_gpio.o
GPIO_ResetBits                                    ../../src/stm/Libraries/STM32F10x_StdPeriph_Driver/src/stm32f10x_gpio.o
                                                  ../../src/ccid/smartcard/smartcard.o
                                                  ../../src/hw_config.o
                                                  ../../src/main.o
GPIO_SetBits                                      ../../src/stm/Libraries/STM32F10x_StdPeriph_Driver/src/stm32f10x_gpio.o
                                                  ../../src/ccid/smartcard/smartcard.o
                                                  ../../src/hw_config.o
                                                  ../../src/main.o
GPIO_StructInit                                   ../../src/stm/Libraries/STM32F10x_StdPeriph_Driver/src/stm32f10x_gpio.o
GPIO_Write                                        ../../src/stm/Libraries/STM32F10x_StdPeriph_Driver/src/stm32f10x_gpio.o
GPIO_WriteBit                                     ../../src/stm/Libraries/STM32F10x_StdPeriph_Driver/src/stm32f10x_gpio.o
                                                  ../../src/ccid/smartcard/smartcard.o
GSMDir                                            ../../src/ccid/smartcard/smartcard.o
GenerateCRC                                       ../../src/ccid/CcidLocalAccess.o
GenerateChainedTPDU                               ../../src/ccid/CcidLocalAccess.o
GenerateTPDU                                      ../../src/ccid/CcidLocalAccess.o
GetBTABLE                                         ../../src/stm/Libraries/STM32_USB-FS-Device_Driver/src/usb_regs.o
GetCNTR                                           ../../src/stm/Libraries/STM32_USB-FS-Device_Driver/src/usb_regs.o
GetDADDR                                          ../../src/stm/Libraries/STM32_USB-FS-Device_Driver/src/usb_regs.o
GetDebug                                          ../../src/pwd-safe/FlashStorage.o
                                                  ../../src/keyboard/report_protocol.o
GetENDPOINT                                       ../../src/stm/Libraries/STM32_USB-FS-Device_Driver/src/usb_regs.o
GetEPAddress                                      ../../src/stm/Libraries/STM32_USB-FS-Device_Driver/src/usb_regs.o
GetEPDblBuf0Addr                                  ../../src/stm/Libraries/STM32_USB-FS-Device_Driver/src/usb_regs.o
GetEPDblBuf0Count                                 ../../src/stm/Libraries/STM32_USB-FS-Device_Driver/src/usb_regs.o
GetEPDblBuf1Addr                                  ../../src/stm/Libraries/STM32_USB-FS-Device_Driver/src/usb_regs.o
GetEPDblBuf1Count                                 ../../src/stm/Libraries/STM32_USB-FS-Device_Driver/src/usb_regs.o
GetEPDblBufDir                                    ../../src/stm/Libraries/STM32_USB-FS-Device_Driver/src/usb_regs.o
GetEPRxAddr                                       ../../src/stm/Libraries/STM32_USB-FS-Device_Driver/src/usb_regs.o
                                                  ../../src/stm/Libraries/STM32_USB-FS-Device_Driver/src/usb_core.o
GetEPRxCount                                      ../../src/stm/Libraries/STM32_USB-FS-Device_Driver/src/usb_regs.o
                                                  ../../src/ccid/Ccid_usb.o
GetEPRxStatus                                     ../../src/stm/Libraries/STM32_USB-FS-Device_Driver/src/usb_regs.o
GetEPTxAddr                                       ../../src/stm/Libraries/STM32_USB-FS-Device_Driver/src/usb_regs.o
                                                  ../../src/stm/Libraries/STM32_USB-FS-Device_Driver/src/usb_core.o
GetEPTxCount                                      ../../src/stm/Libraries/STM32_USB-FS-Device_Driver/src/usb_regs.o
GetEPTxStatus                                     ../../src/stm/Libraries/STM32_USB-FS-Device_Driver/src/usb_regs.o
GetEPType                                         ../../src/stm/Libraries/STM32_USB-FS-Device_Driver/src/usb_regs.o
GetExpectedAnswerSizeFromAPDU                     ../../src/ccid/Ifd_protocol.o
GetFNR                                            ../../src/stm/Libraries/STM32_USB-FS-Device_Driver/src/usb_regs.o
GetISTR                                           ../../src/stm/Libraries/STM32_USB-FS-Device_Driver/src/usb_regs.o
GetRxStallStatus                                  ../../src/stm/Libraries/STM32_USB-FS-Device_Driver/src/usb_regs.o
GetStorageKey_u32                                 ../../src/pwd-safe/HandleAesStorageKey.o
GetTxStallStatus                                  ../../src/stm/Libraries/STM32_USB-FS-Device_Driver/src/usb_regs.o
Get_Max_Lun                                       ../../src/sd-disk/sd-usb/usb_prop.o
Get_SerialNum                                     ../../src/hw_config.o
                                                  ../../src/sd-disk/sd-usb/usb_prop.o
                                                  ../../src/ccid/CCIDHID_USB/CCIDHID_usb_prop.o
HID_GetReport_Value                               ../../src/ccid/CCIDHID_USB/CCIDHID_usb_prop.o
HID_GetReport_Value_tmp                           ../../src/ccid/CCIDHID_USB/CCIDHID_usb_prop.o
                                                  ../../src/main.o
HID_SetReport_Value                               ../../src/ccid/CCIDHID_USB/CCIDHID_usb_prop.o
HID_SetReport_Value_tmp                           ../../src/ccid/CCIDHID_USB/CCIDHID_usb_prop.o
                                                  ../../src/main.o
HardFault_Handler                                 ../../src/stm/stm32f10x_it.o
                                                  ../../src/stm/Libraries/CMSIS/Core/CM3/startup/gcc/startup_stm32f10x_hd.o
HexToAscii                                        ../../src/hw_config.o
HighLevelTests                                    ../../src/pwd-safe/HandleAesStorageKey.o
I2C1_ER_IRQHandler                                ../../src/stm/Libraries/CMSIS/Core/CM3/startup/gcc/startup_stm32f10x_hd.o
I2C1_EV_IRQHandler                                ../../src/stm/Libraries/CMSIS/Core/CM3/startup/gcc/startup_stm32f10x_hd.o
I2C2_ER_IRQHandler                                ../../src/stm/Libraries/CMSIS/Core/CM3/startup/gcc/startup_stm32f10x_hd.o
I2C2_EV_IRQHandler                                ../../src/stm/Libraries/CMSIS/Core/CM3/startup/gcc/startup_stm32f10x_hd.o
I2C_ARPCmd                                        ../../src/stm/Libraries/STM32F10x_StdPeriph_Driver/src/stm32f10x_i2c.o
I2C_AcknowledgeConfig                             ../../src/stm/Libraries/STM32F10x_StdPeriph_Driver/src/stm32f10x_i2c.o
I2C_CalculatePEC                                  ../../src/stm/Libraries/STM32F10x_StdPeriph_Driver/src/stm32f10x_i2c.o
I2C_CheckEvent                                    ../../src/stm/Libraries/STM32F10x_StdPeriph_Driver/src/stm32f10x_i2c.o
I2C_ClearFlag                                     ../../src/stm/Libraries/STM32F10x_StdPeriph_Driver/src/stm32f10x_i2c.o
I2C_ClearITPendingBit                             ../../src/stm/Libraries/STM32F10x_StdPeriph_Driver/src/stm32f10x_i2c.o
I2C_Cmd                                           ../../src/stm/Libraries/STM32F10x_StdPeriph_Driver/src/stm32f10x_i2c.o
I2C_DMACmd                                        ../../src/stm/Libraries/STM32F10x_StdPeriph_Driver/src/stm32f10x_i2c.o
I2C_DMALastTransferCmd                            ../../src/stm/Libraries/STM32F10x_StdPeriph_Driver/src/stm32f10x_i2c.o
I2C_DeInit                                        ../../src/stm/Libraries/STM32F10x_StdPeriph_Driver/src/stm32f10x_i2c.o
I2C_DualAddressCmd                                ../../src/stm/Libraries/STM32F10x_StdPeriph_Driver/src/stm32f10x_i2c.o
I2C_FastModeDutyCycleConfig                       ../../src/stm/Libraries/STM32F10x_StdPeriph_Driver/src/stm32f10x_i2c.o
I2C_GeneralCallCmd                                ../../src/stm/Libraries/STM32F10x_StdPeriph_Driver/src/stm32f10x_i2c.o
I2C_GenerateSTART                                 ../../src/stm/Libraries/STM32F10x_StdPeriph_Driver/src/stm32f10x_i2c.o
I2C_GenerateSTOP                                  ../../src/stm/Libraries/STM32F10x_StdPeriph_Driver/src/stm32f10x_i2c.o
I2C_GetFlagStatus                                 ../../src/stm/Libraries/STM32F10x_StdPeriph_Driver/src/stm32f10x_i2c.o
I2C_GetITStatus                                   ../../src/stm/Libraries/STM32F10x_StdPeriph_Driver/src/stm32f10x_i2c.o
I2C_GetLastEvent                                  ../../src/stm/Libraries/STM32F10x_StdPeriph_Driver/src/stm32f10x_i2c.o
I2C_GetPEC                                        ../../src/stm/Libraries/STM32F10x_StdPeriph_Driver/src/stm32f10x_i2c.o
I2C_ITConfig                                      ../../src/stm/Libraries/STM32F10x_StdPeriph_Driver/src/stm32f10x_i2c.o
I2C_Init                                          ../../src/stm/Libraries/STM32F10x_StdPeriph_Driver/src/stm32f10x_i2c.o
I2C_OwnAddress2Config                             ../../src/stm/Libraries/STM32F10x_StdPeriph_Driver/src/stm32f10x_i2c.o
I2C_PECPositionConfig                             ../../src/stm/Libraries/STM32F10x_StdPeriph_Driver/src/stm32f10x_i2c.o
I2C_ReadRegister                                  ../../src/stm/Libraries/STM32F10x_StdPeriph_Driver/src/stm32f10x_i2c.o
I2C_ReceiveData                                   ../../src/stm/Libraries/STM32F10x_StdPeriph_Driver/src/stm32f10x_i2c.o
I2C_SMBusAlertConfig                              ../../src/stm/Libraries/STM32F10x_StdPeriph_Driver/src/stm32f10x_i2c.o
I2C_Send7bitAddress                               ../../src/stm/Libraries/STM32F10x_StdPeriph_Driver/src/stm32f10x_i2c.o
I2C_SendData                                      ../../src/stm/Libraries/STM32F10x_StdPeriph_Driver/src/stm32f10x_i2c.o
I2C_SoftwareResetCmd                              ../../src/stm/Libraries/STM32F10x_StdPeriph_Driver/src/stm32f10x_i2c.o
I2C_StretchClockCmd                               ../../src/stm/Libraries/STM32F10x_StdPeriph_Driver/src/stm32f10x_i2c.o
I2C_StructInit                                    ../../src/stm/Libraries/STM32F10x_StdPeriph_Driver/src/stm32f10x_i2c.o
I2C_TransmitPEC                                   ../../src/stm/Libraries/STM32F10x_StdPeriph_Driver/src/stm32f10x_i2c.o
I2S_Cmd                                           ../../src/stm/Libraries/STM32F10x_StdPeriph_Driver/src/stm32f10x_spi.o
I2S_Init                                          ../../src/stm/Libraries/STM32F10x_StdPeriph_Driver/src/stm32f10x_spi.o
I2S_StructInit                                    ../../src/stm/Libraries/STM32F10x_StdPeriph_Driver/src/stm32f10x_spi.o
ICCID                                             ../../src/ccid/smartcard/smartcard.o
ICCID_Content                                     ../../src/ccid/smartcard/smartcard.o
ICC_ReceiveAnswerAsync                            ../../src/ccid/Crd.o
ICC_ResetAsync                                    ../../src/ccid/Crd.o
ICC_SendCommandAsync                              ../../src/ccid/Crd.o
IFD_ApplyParametersStructure                      ../../src/ccid/Ifd_protocol.o
IFD_Escape                                        ../../src/ccid/Ifd_protocol.o
                                                  ../../src/ccid/Ifd_ccid.o
IFD_EscapeSendHwName                              ../../src/ccid/Ifd_protocol.o
IFD_GetParameters                                 ../../src/ccid/Ifd_protocol.o
                                                  ../../src/ccid/Ifd_ccid.o
IFD_Init                                          ../../src/ccid/Ifd_protocol.o
IFD_SetATRData                                    ../../src/ccid/Ifd_protocol.o
                                                  ../../src/ccid/Ccid_usb.o
IFD_SetClock                                      ../../src/ccid/Ifd_protocol.o
                                                  ../../src/ccid/Ifd_ccid.o
IFD_SetParameters                                 ../../src/ccid/Ifd_protocol.o
                                                  ../../src/ccid/Ifd_ccid.o
IFD_UpdateConvParameterStructure                  ../../src/ccid/Ifd_protocol.o
IFD_XfrBlock                                      ../../src/ccid/Ifd_protocol.o
                                                  ../../src/ccid/Ifd_ccid.o
IFD_XfrCharT0                                     ../../src/ccid/Ifd_protocol.o
IFD_XfrCharT1                                     ../../src/ccid/Ifd_protocol.o
IFD_XfrTpduT0                                     ../../src/ccid/Ifd_protocol.o
IFD_XfrTpduT1                                     ../../src/ccid/Ifd_protocol.o
IMSI                                              ../../src/ccid/smartcard/smartcard.o
IMSI_Content                                      ../../src/ccid/smartcard/smartcard.o
IWDG_Enable                                       ../../src/stm/Libraries/STM32F10x_StdPeriph_Driver/src/stm32f10x_iwdg.o
IWDG_GetFlagStatus                                ../../src/stm/Libraries/STM32F10x_StdPeriph_Driver/src/stm32f10x_iwdg.o
IWDG_ReloadCounter                                ../../src/stm/Libraries/STM32F10x_StdPeriph_Driver/src/stm32f10x_iwdg.o
IWDG_SetPrescaler                                 ../../src/stm/Libraries/STM32F10x_StdPeriph_Driver/src/stm32f10x_iwdg.o
IWDG_SetReload                                    ../../src/stm/Libraries/STM32F10x_StdPeriph_Driver/src/stm32f10x_iwdg.o
IWDG_WriteAccessCmd                               ../../src/stm/Libraries/STM32F10x_StdPeriph_Driver/src/stm32f10x_iwdg.o
In0_Process                                       ../../src/stm/Libraries/STM32_USB-FS-Device_Driver/src/usb_core.o
                                                  ../../src/stm/Libraries/STM32_USB-FS-Device_Driver/src/usb_int.o
InitSCTStruct                                     ../../src/ccid/CcidLocalAccess.o
InitStickConfigurationToUserPage_u8               ../../src/pwd-safe/FlashStorage.o
InstructionByte                                   ../../src/ccid/Crd.o
InvalidateATR                                     ../../src/ccid/smartcard/smartcard.o
Keyboard_GetHIDDescriptor                         ../../src/ccid/CCIDHID_USB/CCIDHID_usb_prop.o
Keyboard_GetProtocolValue                         ../../src/ccid/CCIDHID_USB/CCIDHID_usb_prop.o
Keyboard_GetReportDescriptor                      ../../src/ccid/CCIDHID_USB/CCIDHID_usb_prop.o
Keyboard_GetReport_Feature                        ../../src/ccid/CCIDHID_USB/CCIDHID_usb_prop.o
Keyboard_Hid_Descriptor                           ../../src/ccid/CCIDHID_USB/CCIDHID_usb_prop.o
Keyboard_ReportDescriptor                         ../../src/ccid/CCIDHID_USB/CCIDHID_usb_desc.o
                                                  ../../src/ccid/CCIDHID_USB/CCIDHID_usb_prop.o
Keyboard_Report_Descriptor                        ../../src/ccid/CCIDHID_USB/CCIDHID_usb_prop.o
Keyboard_SetProtocol                              ../../src/ccid/CCIDHID_USB/CCIDHID_usb_prop.o
Keyboard_SetReport_Feature                        ../../src/ccid/CCIDHID_USB/CCIDHID_usb_prop.o
Keyboard_SetReport_Output                         ../../src/ccid/CCIDHID_USB/CCIDHID_usb_prop.o
Leave_LowPowerMode                                ../../src/hw_config.o
                                                  ../../src/usb/usb_pwr.o
MAL_Config                                        ../../src/hw_config.o
MASS_ConfigDescriptor                             ../../src/sd-disk/sd-usb/usb_desc.o
                                                  ../../src/sd-disk/sd-usb/usb_prop.o
MASS_Config_Descriptor                            ../../src/sd-disk/sd-usb/usb_prop.o
MASS_Data_Setup                                   ../../src/sd-disk/sd-usb/usb_prop.o
MASS_DeviceDescriptor                             ../../src/sd-disk/sd-usb/usb_desc.o
                                                  ../../src/sd-disk/sd-usb/usb_prop.o
MASS_Device_Descriptor                            ../../src/sd-disk/sd-usb/usb_prop.o
MASS_Device_Info                                  ../../src/sd-disk/sd-usb/usb_prop.o
MASS_Device_Property                              ../../src/sd-disk/sd-usb/usb_prop.o
MASS_Device_Table                                 ../../src/sd-disk/sd-usb/usb_prop.o
MASS_GetConfigDescriptor                          ../../src/sd-disk/sd-usb/usb_prop.o
MASS_GetDeviceDescriptor                          ../../src/sd-disk/sd-usb/usb_prop.o
MASS_GetStringDescriptor                          ../../src/sd-disk/sd-usb/usb_prop.o
MASS_Get_Interface_Setting                        ../../src/sd-disk/sd-usb/usb_prop.o
MASS_NoData_Setup                                 ../../src/sd-disk/sd-usb/usb_prop.o
MASS_Reset                                        ../../src/sd-disk/sd-usb/usb_prop.o
MASS_Status_In                                    ../../src/sd-disk/sd-usb/usb_prop.o
MASS_Status_Out                                   ../../src/sd-disk/sd-usb/usb_prop.o
MASS_StringInterface                              ../../src/sd-disk/sd-usb/usb_desc.o
                                                  ../../src/sd-disk/sd-usb/usb_prop.o
MASS_StringLangID                                 ../../src/sd-disk/sd-usb/usb_desc.o
                                                  ../../src/sd-disk/sd-usb/usb_prop.o
MASS_StringProduct                                ../../src/sd-disk/sd-usb/usb_desc.o
                                                  ../../src/sd-disk/sd-usb/usb_prop.o
MASS_StringSerial                                 ../../src/sd-disk/sd-usb/usb_desc.o
                                                  ../../src/sd-disk/sd-usb/usb_prop.o
MASS_StringVendor                                 ../../src/sd-disk/sd-usb/usb_desc.o
                                                  ../../src/sd-disk/sd-usb/usb_prop.o
MASS_String_Descriptor                            ../../src/sd-disk/sd-usb/usb_prop.o
MASS_User_Standard_Requests                       ../../src/sd-disk/sd-usb/usb_prop.o
MASS_init                                         ../../src/sd-disk/sd-usb/usb_prop.o
Mass_Storage_ClearFeature                         ../../src/sd-disk/sd-usb/usb_prop.o
Mass_Storage_In                                   ../../src/usb/usb_bot.o
Mass_Storage_Out                                  ../../src/usb/usb_bot.o
Mass_Storage_SetConfiguration                     ../../src/sd-disk/sd-usb/usb_prop.o
Mass_Storage_SetDeviceAddress                     ../../src/sd-disk/sd-usb/usb_prop.o
MasterRoot                                        ../../src/ccid/smartcard/smartcard.o
Max_Lun                                           ../../src/sd-disk/sd-usb/usb_prop.o
MemManage_Handler                                 ../../src/stm/stm32f10x_it.o
NMI_Handler                                       ../../src/stm/stm32f10x_it.o
NOP_Process                                       ../../src/stm/Libraries/STM32_USB-FS-Device_Driver/src/usb_core.o
                                                  ../../src/usb/usb_istr.o
                                                  ../../src/sd-disk/sd-usb/usb_prop.o
                                                  ../../src/ccid/CCIDHID_USB/CCIDHID_usb_prop.o
NVIC_Init                                         ../../src/stm/Libraries/STM32F10x_StdPeriph_Driver/src/misc.o
                                                  ../../src/ccid/smartcard/smartcard.o
                                                  ../../src/hw_config.o
NVIC_PriorityGroupConfig                          ../../src/stm/Libraries/STM32F10x_StdPeriph_Driver/src/misc.o
                                                  ../../src/ccid/smartcard/smartcard.o
                                                  ../../src/hw_config.o
NVIC_SetVectorTable                               ../../src/stm/Libraries/STM32F10x_StdPeriph_Driver/src/misc.o
                                                  ../../src/ccid/smartcard/smartcard.o
NVIC_SystemLPConfig                               ../../src/stm/Libraries/STM32F10x_StdPeriph_Driver/src/misc.o
Out0_Process                                      ../../src/stm/Libraries/STM32_USB-FS-Device_Driver/src/usb_core.o
                                                  ../../src/stm/Libraries/STM32_USB-FS-Device_Driver/src/usb_int.o
PC_to_RDR_Abort                                   ../../src/ccid/Ifd_ccid.o
                                                  ../../src/ccid/Ccid_usb.o
PC_to_RDR_Escape                                  ../../src/ccid/Ifd_ccid.o
                                                  ../../src/ccid/Ccid_usb.o
PC_to_RDR_GetParameters                           ../../src/ccid/Ifd_ccid.o
                                                  ../../src/ccid/Ccid_usb.o
PC_to_RDR_GetSlotStatus                           ../../src/ccid/Ifd_ccid.o
                                                  ../../src/ccid/Ccid_usb.o
PC_to_RDR_IccClock                                ../../src/ccid/Ifd_ccid.o
                                                  ../../src/ccid/Ccid_usb.o
PC_to_RDR_IccPowerOff                             ../../src/ccid/Ifd_ccid.o
                                                  ../../src/ccid/Ccid_usb.o
PC_to_RDR_IccPowerOn                              ../../src/ccid/Ifd_ccid.o
                                                  ../../src/ccid/Ccid_usb.o
PC_to_RDR_ResetParameters                         ../../src/ccid/Ifd_ccid.o
                                                  ../../src/ccid/Ccid_usb.o
PC_to_RDR_SetParameters                           ../../src/ccid/Ifd_ccid.o
                                                  ../../src/ccid/Ccid_usb.o
PC_to_RDR_XfrBlock                                ../../src/ccid/Ifd_ccid.o
                                                  ../../src/ccid/Ccid_usb.o
PMAToUserBufferCopy                               ../../src/stm/Libraries/STM32_USB-FS-Device_Driver/src/usb_mem.o
                                                  ../../src/stm/Libraries/STM32_USB-FS-Device_Driver/src/usb_core.o
                                                  ../../src/ccid/Ccid_usb.o
PVD_IRQHandler                                    ../../src/stm/Libraries/CMSIS/Core/CM3/startup/gcc/startup_stm32f10x_hd.o
PWR_BackupAccessCmd                               ../../src/stm/Libraries/STM32F10x_StdPeriph_Driver/src/stm32f10x_pwr.o
PWR_ClearFlag                                     ../../src/stm/Libraries/STM32F10x_StdPeriph_Driver/src/stm32f10x_pwr.o
PWR_DeInit                                        ../../src/stm/Libraries/STM32F10x_StdPeriph_Driver/src/stm32f10x_pwr.o
PWR_EnterSTANDBYMode                              ../../src/stm/Libraries/STM32F10x_StdPeriph_Driver/src/stm32f10x_pwr.o
PWR_EnterSTOPMode                                 ../../src/stm/Libraries/STM32F10x_StdPeriph_Driver/src/stm32f10x_pwr.o
PWR_GetFlagStatus                                 ../../src/stm/Libraries/STM32F10x_StdPeriph_Driver/src/stm32f10x_pwr.o
PWR_PVDCmd                                        ../../src/stm/Libraries/STM32F10x_StdPeriph_Driver/src/stm32f10x_pwr.o
PWR_PVDLevelConfig                                ../../src/stm/Libraries/STM32F10x_StdPeriph_Driver/src/stm32f10x_pwr.o
PWR_WakeUpPinCmd                                  ../../src/stm/Libraries/STM32F10x_StdPeriph_Driver/src/stm32f10x_pwr.o
PWS_BufferSlot_st                                 ../../src/pwd-safe/password_safe.o
PWS_CheckPasswordSafeKey_u8                       ../../src/pwd-safe/password_safe.o
                                                  ../../src/pwd-safe/HandleAesStorageKey.o
PWS_DecryptedPasswordSafeKey                      ../../src/pwd-safe/password_safe.o
PWS_DisableKey                                    ../../src/pwd-safe/password_safe.o
                                                  ../../src/keyboard/report_protocol.o
PWS_EnableAccess                                  ../../src/pwd-safe/password_safe.o
                                                  ../../src/keyboard/report_protocol.o
PWS_EraseSlot                                     ../../src/pwd-safe/password_safe.o
                                                  ../../src/keyboard/report_protocol.o
PWS_GetAllSlotStatus                              ../../src/pwd-safe/password_safe.o
                                                  ../../src/keyboard/report_protocol.o
PWS_GetDecryptedPasswordSafeKey                   ../../src/pwd-safe/password_safe.o
PWS_GetSlotLoginName                              ../../src/pwd-safe/password_safe.o
                                                  ../../src/keyboard/report_protocol.o
PWS_GetSlotName                                   ../../src/pwd-safe/password_safe.o
                                                  ../../src/keyboard/report_protocol.o
PWS_GetSlotPassword                               ../../src/pwd-safe/password_safe.o
                                                  ../../src/keyboard/report_protocol.o
PWS_InitKey                                       ../../src/pwd-safe/password_safe.o
                                                  ../../src/keyboard/report_protocol.o
PWS_ReadSlot                                      ../../src/pwd-safe/password_safe.o
PWS_SendData                                      ../../src/pwd-safe/password_safe.o
                                                  ../../src/keyboard/report_protocol.o
PWS_WriteSlot                                     ../../src/pwd-safe/password_safe.o
PWS_WriteSlotData_1                               ../../src/pwd-safe/password_safe.o
                                                  ../../src/keyboard/report_protocol.o
PWS_WriteSlotData_2                               ../../src/pwd-safe/password_safe.o
                                                  ../../src/keyboard/report_protocol.o
PendSV_Handler                                    ../../src/stm/stm32f10x_it.o
Post0_Process                                     ../../src/stm/Libraries/STM32_USB-FS-Device_Driver/src/usb_core.o
PowerOff                                          ../../src/usb/usb_pwr.o
PowerOn                                           ../../src/usb/usb_pwr.o
                                                  ../../src/sd-disk/sd-usb/usb_prop.o
                                                  ../../src/ccid/CCIDHID_USB/CCIDHID_usb_prop.o
PrevXferComplete                                  ../../src/keyboard/keyboard.o
                                                  ../../src/usb/usb_endp.o
ProcedureByte                                     ../../src/ccid/Crd.o
ProtocolValue                                     ../../src/ccid/CCIDHID_USB/CCIDHID_usb_prop.o
RCC_ADCCLKConfig                                  ../../src/stm/Libraries/STM32F10x_StdPeriph_Driver/src/stm32f10x_rcc.o
RCC_AHBPeriphClockCmd                             ../../src/stm/Libraries/STM32F10x_StdPeriph_Driver/src/stm32f10x_rcc.o
                                                  ../../src/hw_config.o
RCC_APB1PeriphClockCmd                            ../../src/stm/Libraries/STM32F10x_StdPeriph_Driver/src/stm32f10x_rcc.o
                                                  ../../src/hw_config.o
RCC_APB1PeriphResetCmd                            ../../src/stm/Libraries/STM32F10x_StdPeriph_Driver/src/stm32f10x_rcc.o
                                                  ../../src/stm/Libraries/STM32F10x_StdPeriph_Driver/src/stm32f10x_wwdg.o
                                                  ../../src/stm/Libraries/STM32F10x_StdPeriph_Driver/src/stm32f10x_usart.o
                                                  ../../src/stm/Libraries/STM32F10x_StdPeriph_Driver/src/stm32f10x_tim.o
                                                  ../../src/stm/Libraries/STM32F10x_StdPeriph_Driver/src/stm32f10x_spi.o
                                                  ../../src/stm/Libraries/STM32F10x_StdPeriph_Driver/src/stm32f10x_pwr.o
                                                  ../../src/stm/Libraries/STM32F10x_StdPeriph_Driver/src/stm32f10x_i2c.o
                                                  ../../src/stm/Libraries/STM32F10x_StdPeriph_Driver/src/stm32f10x_dac.o
                                                  ../../src/stm/Libraries/STM32F10x_StdPeriph_Driver/src/stm32f10x_can.o
RCC_APB2PeriphClockCmd                            ../../src/stm/Libraries/STM32F10x_StdPeriph_Driver/src/stm32f10x_rcc.o
                                                  ../../src/ccid/smartcard/smartcard.o
                                                  ../../src/hw_config.o
                                                  ../../src/main.o
RCC_APB2PeriphResetCmd                            ../../src/stm/Libraries/STM32F10x_StdPeriph_Driver/src/stm32f10x_rcc.o
                                                  ../../src/stm/Libraries/STM32F10x_StdPeriph_Driver/src/stm32f10x_usart.o
                                                  ../../src/stm/Libraries/STM32F10x_StdPeriph_Driver/src/stm32f10x_tim.o
                                                  ../../src/stm/Libraries/STM32F10x_StdPeriph_Driver/src/stm32f10x_spi.o
                                                  ../../src/stm/Libraries/STM32F10x_StdPeriph_Driver/src/stm32f10x_gpio.o
                                                  ../../src/stm/Libraries/STM32F10x_StdPeriph_Driver/src/stm32f10x_adc.o
RCC_AdjustHSICalibrationValue                     ../../src/stm/Libraries/STM32F10x_StdPeriph_Driver/src/stm32f10x_rcc.o
RCC_BackupResetCmd                                ../../src/stm/Libraries/STM32F10x_StdPeriph_Driver/src/stm32f10x_rcc.o
                                                  ../../src/stm/Libraries/STM32F10x_StdPeriph_Driver/src/stm32f10x_bkp.o
RCC_ClearFlag                                     ../../src/stm/Libraries/STM32F10x_StdPeriph_Driver/src/stm32f10x_rcc.o
RCC_ClearITPendingBit                             ../../src/stm/Libraries/STM32F10x_StdPeriph_Driver/src/stm32f10x_rcc.o
RCC_ClockSecuritySystemCmd                        ../../src/stm/Libraries/STM32F10x_StdPeriph_Driver/src/stm32f10x_rcc.o
RCC_Config                                        ../../src/hw_config.o
RCC_DeInit                                        ../../src/stm/Libraries/STM32F10x_StdPeriph_Driver/src/stm32f10x_rcc.o
                                                  ../../src/ccid/smartcard/smartcard.o
RCC_GetClocksFreq                                 ../../src/stm/Libraries/STM32F10x_StdPeriph_Driver/src/stm32f10x_rcc.o
                                                  ../../src/stm/Libraries/STM32F10x_StdPeriph_Driver/src/stm32f10x_usart.o
                                                  ../../src/stm/Libraries/STM32F10x_StdPeriph_Driver/src/stm32f10x_spi.o
                                                  ../../src/stm/Libraries/STM32F10x_StdPeriph_Driver/src/stm32f10x_i2c.o
                                                  ../../src/ccid/smartcard/smartcard.o
RCC_GetFlagStatus                                 ../../src/stm/Libraries/STM32F10x_StdPeriph_Driver/src/stm32f10x_rcc.o
                                                  ../../src/ccid/smartcard/smartcard.o
RCC_GetITStatus                                   ../../src/stm/Libraries/STM32F10x_StdPeriph_Driver/src/stm32f10x_rcc.o
RCC_GetSYSCLKSource                               ../../src/stm/Libraries/STM32F10x_StdPeriph_Driver/src/stm32f10x_rcc.o
                                                  ../../src/ccid/smartcard/smartcard.o
RCC_HCLKConfig                                    ../../src/stm/Libraries/STM32F10x_StdPeriph_Driver/src/stm32f10x_rcc.o
                                                  ../../src/ccid/smartcard/smartcard.o
RCC_HSEConfig                                     ../../src/stm/Libraries/STM32F10x_StdPeriph_Driver/src/stm32f10x_rcc.o
                                                  ../../src/ccid/smartcard/smartcard.o
RCC_HSICmd                                        ../../src/stm/Libraries/STM32F10x_StdPeriph_Driver/src/stm32f10x_rcc.o
RCC_IRQHandler                                    ../../src/stm/Libraries/CMSIS/Core/CM3/startup/gcc/startup_stm32f10x_hd.o
RCC_ITConfig                                      ../../src/stm/Libraries/STM32F10x_StdPeriph_Driver/src/stm32f10x_rcc.o
RCC_LSEConfig                                     ../../src/stm/Libraries/STM32F10x_StdPeriph_Driver/src/stm32f10x_rcc.o
RCC_LSICmd                                        ../../src/stm/Libraries/STM32F10x_StdPeriph_Driver/src/stm32f10x_rcc.o
RCC_MCOConfig                                     ../../src/stm/Libraries/STM32F10x_StdPeriph_Driver/src/stm32f10x_rcc.o
RCC_PCLK1Config                                   ../../src/stm/Libraries/STM32F10x_StdPeriph_Driver/src/stm32f10x_rcc.o
                                                  ../../src/ccid/smartcard/smartcard.o
RCC_PCLK2Config                                   ../../src/stm/Libraries/STM32F10x_StdPeriph_Driver/src/stm32f10x_rcc.o
                                                  ../../src/ccid/smartcard/smartcard.o
RCC_PLLCmd                                        ../../src/stm/Libraries/STM32F10x_StdPeriph_Driver/src/stm32f10x_rcc.o
                                                  ../../src/ccid/smartcard/smartcard.o
RCC_PLLConfig                                     ../../src/stm/Libraries/STM32F10x_StdPeriph_Driver/src/stm32f10x_rcc.o
                                                  ../../src/ccid/smartcard/smartcard.o
RCC_RTCCLKCmd                                     ../../src/stm/Libraries/STM32F10x_StdPeriph_Driver/src/stm32f10x_rcc.o
RCC_RTCCLKConfig                                  ../../src/stm/Libraries/STM32F10x_StdPeriph_Driver/src/stm32f10x_rcc.o
RCC_SYSCLKConfig                                  ../../src/stm/Libraries/STM32F10x_StdPeriph_Driver/src/stm32f10x_rcc.o
                                                  ../../src/ccid/smartcard/smartcard.o
RCC_USBCLKConfig                                  ../../src/stm/Libraries/STM32F10x_StdPeriph_Driver/src/stm32f10x_rcc.o
                                                  ../../src/hw_config.o
RCC_WaitForHSEStartUp                             ../../src/stm/Libraries/STM32F10x_StdPeriph_Driver/src/stm32f10x_rcc.o
                                                  ../../src/ccid/smartcard/smartcard.o
RDR_to_PC_DataBlock                               ../../src/ccid/Ifd_ccid.o
                                                  ../../src/ccid/Ccid_usb.o
RDR_to_PC_Escape                                  ../../src/ccid/Ifd_ccid.o
                                                  ../../src/ccid/Ccid_usb.o
RDR_to_PC_HardwareError                           ../../src/ccid/Ifd_ccid.o
                                                  ../../src/ccid/Ccid_usb.o
RDR_to_PC_NotifySlotChange                        ../../src/ccid/Ifd_ccid.o
                                                  ../../src/ccid/Ccid_usb.o
RDR_to_PC_Parameters                              ../../src/ccid/Ifd_ccid.o
                                                  ../../src/ccid/Ccid_usb.o
RDR_to_PC_SlotStatus                              ../../src/ccid/Ifd_ccid.o
                                                  ../../src/ccid/Ccid_usb.o
RDR_to_PC_SlotStatus_CardStopped                  ../../src/ccid/Ifd_ccid.o
                                                  ../../src/ccid/Ccid_usb.o
RTCAlarm_IRQHandler                               ../../src/stm/Libraries/CMSIS/Core/CM3/startup/gcc/startup_stm32f10x_hd.o
RTC_ClearFlag                                     ../../src/stm/Libraries/STM32F10x_StdPeriph_Driver/src/stm32f10x_rtc.o
RTC_ClearITPendingBit                             ../../src/stm/Libraries/STM32F10x_StdPeriph_Driver/src/stm32f10x_rtc.o
RTC_EnterConfigMode                               ../../src/stm/Libraries/STM32F10x_StdPeriph_Driver/src/stm32f10x_rtc.o
RTC_ExitConfigMode                                ../../src/stm/Libraries/STM32F10x_StdPeriph_Driver/src/stm32f10x_rtc.o
RTC_GetCounter                                    ../../src/stm/Libraries/STM32F10x_StdPeriph_Driver/src/stm32f10x_rtc.o
RTC_GetDivider                                    ../../src/stm/Libraries/STM32F10x_StdPeriph_Driver/src/stm32f10x_rtc.o
RTC_GetFlagStatus                                 ../../src/stm/Libraries/STM32F10x_StdPeriph_Driver/src/stm32f10x_rtc.o
RTC_GetITStatus                                   ../../src/stm/Libraries/STM32F10x_StdPeriph_Driver/src/stm32f10x_rtc.o
RTC_IRQHandler                                    ../../src/stm/Libraries/CMSIS/Core/CM3/startup/gcc/startup_stm32f10x_hd.o
RTC_ITConfig                                      ../../src/stm/Libraries/STM32F10x_StdPeriph_Driver/src/stm32f10x_rtc.o
RTC_SetAlarm                                      ../../src/stm/Libraries/STM32F10x_StdPeriph_Driver/src/stm32f10x_rtc.o
RTC_SetCounter                                    ../../src/stm/Libraries/STM32F10x_StdPeriph_Driver/src/stm32f10x_rtc.o
RTC_SetPrescaler                                  ../../src/stm/Libraries/STM32F10x_StdPeriph_Driver/src/stm32f10x_rtc.o
RTC_WaitForLastTask                               ../../src/stm/Libraries/STM32F10x_StdPeriph_Driver/src/stm32f10x_rtc.o
RTC_WaitForSynchro                                ../../src/stm/Libraries/STM32F10x_StdPeriph_Driver/src/stm32f10x_rtc.o
ReadAESStorageKeyToUserPage                       ../../src/pwd-safe/FlashStorage.o
                                                  ../../src/pwd-safe/HandleAesStorageKey.o
ReadButton                                        ../../src/hw_config.o
ReadPasswordSafeKey                               ../../src/pwd-safe/FlashStorage.o
                                                  ../../src/pwd-safe/password_safe.o
ReadStickConfigurationFromUserPage                ../../src/pwd-safe/FlashStorage.o
                                                  ../../src/pwd-safe/HandleAesStorageKey.o
ReadXorPatternFromFlash                           ../../src/pwd-safe/FlashStorage.o
                                                  ../../src/pwd-safe/HandleAesStorageKey.o
Request                                           ../../src/ccid/CCIDHID_USB/CCIDHID_usb_prop.o
RequestType                                       ../../src/ccid/CCIDHID_USB/CCIDHID_usb_prop.o
Reset_Handler                                     ../../src/stm/Libraries/CMSIS/Core/CM3/startup/gcc/startup_stm32f10x_hd.o
RestartSmartcard                                  ../../src/ccid/smartcard/smartcard.o
                                                  ../../src/pwd-safe/password_safe.o
                                                  ../../src/pwd-safe/HandleAesStorageKey.o
                                                  ../../src/ccid/CcidLocalAccess.o
                                                  ../../src/ccid/Ifd_ccid.o
Resume                                            ../../src/usb/usb_pwr.o
                                                  ../../src/usb/usb_istr.o
ResumeS                                           ../../src/usb/usb_pwr.o
Resume_Init                                       ../../src/usb/usb_pwr.o
SCSI_BlkLen                                       ../../src/usb/usb_bot.o
SCSI_LBA                                          ../../src/usb/usb_bot.o
SC_A2R                                            ../../src/ccid/smartcard/smartcard.o
                                                  ../../src/ccid/Ifd_protocol.o
SC_ATR_Length                                     ../../src/ccid/smartcard/smartcard.o
SC_ATR_Table                                      ../../src/ccid/smartcard/smartcard.o
SC_Handler                                        ../../src/ccid/smartcard/smartcard.o
SC_Init                                           ../../src/ccid/smartcard/smartcard.o
SC_PTSConfig                                      ../../src/ccid/smartcard/smartcard.o
SC_ParityErrorHandler                             ../../src/ccid/smartcard/smartcard.o
SC_PowerCmd                                       ../../src/ccid/smartcard/smartcard.o
SC_Reset                                          ../../src/ccid/smartcard/smartcard.o
SC_Responce                                       ../../src/ccid/smartcard/smartcard.o
SC_SetHwParams                                    ../../src/ccid/smartcard/smartcard.o
SDIO_CEATAITCmd                                   ../../src/stm/Libraries/STM32F10x_StdPeriph_Driver/src/stm32f10x_sdio.o
SDIO_ClearFlag                                    ../../src/stm/Libraries/STM32F10x_StdPeriph_Driver/src/stm32f10x_sdio.o
SDIO_ClearITPendingBit                            ../../src/stm/Libraries/STM32F10x_StdPeriph_Driver/src/stm32f10x_sdio.o
SDIO_ClockCmd                                     ../../src/stm/Libraries/STM32F10x_StdPeriph_Driver/src/stm32f10x_sdio.o
SDIO_CmdStructInit                                ../../src/stm/Libraries/STM32F10x_StdPeriph_Driver/src/stm32f10x_sdio.o
SDIO_CommandCompletionCmd                         ../../src/stm/Libraries/STM32F10x_StdPeriph_Driver/src/stm32f10x_sdio.o
SDIO_DMACmd                                       ../../src/stm/Libraries/STM32F10x_StdPeriph_Driver/src/stm32f10x_sdio.o
SDIO_DataConfig                                   ../../src/stm/Libraries/STM32F10x_StdPeriph_Driver/src/stm32f10x_sdio.o
SDIO_DataStructInit                               ../../src/stm/Libraries/STM32F10x_StdPeriph_Driver/src/stm32f10x_sdio.o
SDIO_DeInit                                       ../../src/stm/Libraries/STM32F10x_StdPeriph_Driver/src/stm32f10x_sdio.o
SDIO_GetCommandResponse                           ../../src/stm/Libraries/STM32F10x_StdPeriph_Driver/src/stm32f10x_sdio.o
SDIO_GetDataCounter                               ../../src/stm/Libraries/STM32F10x_StdPeriph_Driver/src/stm32f10x_sdio.o
SDIO_GetFIFOCount                                 ../../src/stm/Libraries/STM32F10x_StdPeriph_Driver/src/stm32f10x_sdio.o
SDIO_GetFlagStatus                                ../../src/stm/Libraries/STM32F10x_StdPeriph_Driver/src/stm32f10x_sdio.o
SDIO_GetITStatus                                  ../../src/stm/Libraries/STM32F10x_StdPeriph_Driver/src/stm32f10x_sdio.o
SDIO_GetPowerState                                ../../src/stm/Libraries/STM32F10x_StdPeriph_Driver/src/stm32f10x_sdio.o
SDIO_GetResponse                                  ../../src/stm/Libraries/STM32F10x_StdPeriph_Driver/src/stm32f10x_sdio.o
SDIO_IRQHandler                                   ../../src/stm/stm32f10x_it.o
SDIO_ITConfig                                     ../../src/stm/Libraries/STM32F10x_StdPeriph_Driver/src/stm32f10x_sdio.o
SDIO_Init                                         ../../src/stm/Libraries/STM32F10x_StdPeriph_Driver/src/stm32f10x_sdio.o
SDIO_ReadData                                     ../../src/stm/Libraries/STM32F10x_StdPeriph_Driver/src/stm32f10x_sdio.o
SDIO_SendCEATACmd                                 ../../src/stm/Libraries/STM32F10x_StdPeriph_Driver/src/stm32f10x_sdio.o
SDIO_SendCommand                                  ../../src/stm/Libraries/STM32F10x_StdPeriph_Driver/src/stm32f10x_sdio.o
SDIO_SendSDIOSuspendCmd                           ../../src/stm/Libraries/STM32F10x_StdPeriph_Driver/src/stm32f10x_sdio.o
SDIO_SetPowerState                                ../../src/stm/Libraries/STM32F10x_StdPeriph_Driver/src/stm32f10x_sdio.o
SDIO_SetSDIOOperation                             ../../src/stm/Libraries/STM32F10x_StdPeriph_Driver/src/stm32f10x_sdio.o
SDIO_SetSDIOReadWaitMode                          ../../src/stm/Libraries/STM32F10x_StdPeriph_Driver/src/stm32f10x_sdio.o
SDIO_StartSDIOReadWait                            ../../src/stm/Libraries/STM32F10x_StdPeriph_Driver/src/stm32f10x_sdio.o
SDIO_StopSDIOReadWait                             ../../src/stm/Libraries/STM32F10x_StdPeriph_Driver/src/stm32f10x_sdio.o
SDIO_StructInit                                   ../../src/stm/Libraries/STM32F10x_StdPeriph_Driver/src/stm32f10x_sdio.o
SDIO_WriteData                                    ../../src/stm/Libraries/STM32F10x_StdPeriph_Driver/src/stm32f10x_sdio.o
SPI1_IRQHandler                                   ../../src/stm/Libraries/CMSIS/Core/CM3/startup/gcc/startup_stm32f10x_hd.o
SPI2_IRQHandler                                   ../../src/stm/Libraries/CMSIS/Core/CM3/startup/gcc/startup_stm32f10x_hd.o
SPI3_IRQHandler                                   ../../src/stm/Libraries/CMSIS/Core/CM3/startup/gcc/startup_stm32f10x_hd.o
SPI_BiDirectionalLineConfig                       ../../src/stm/Libraries/STM32F10x_StdPeriph_Driver/src/stm32f10x_spi.o
SPI_CalculateCRC                                  ../../src/stm/Libraries/STM32F10x_StdPeriph_Driver/src/stm32f10x_spi.o
SPI_Cmd                                           ../../src/stm/Libraries/STM32F10x_StdPeriph_Driver/src/stm32f10x_spi.o
SPI_DataSizeConfig                                ../../src/stm/Libraries/STM32F10x_StdPeriph_Driver/src/stm32f10x_spi.o
SPI_GetCRC                                        ../../src/stm/Libraries/STM32F10x_StdPeriph_Driver/src/stm32f10x_spi.o
SPI_GetCRCPolynomial                              ../../src/stm/Libraries/STM32F10x_StdPeriph_Driver/src/stm32f10x_spi.o
SPI_I2S_ClearFlag                                 ../../src/stm/Libraries/STM32F10x_StdPeriph_Driver/src/stm32f10x_spi.o
SPI_I2S_ClearITPendingBit                         ../../src/stm/Libraries/STM32F10x_StdPeriph_Driver/src/stm32f10x_spi.o
SPI_I2S_DMACmd                                    ../../src/stm/Libraries/STM32F10x_StdPeriph_Driver/src/stm32f10x_spi.o
SPI_I2S_DeInit                                    ../../src/stm/Libraries/STM32F10x_StdPeriph_Driver/src/stm32f10x_spi.o
SPI_I2S_GetFlagStatus                             ../../src/stm/Libraries/STM32F10x_StdPeriph_Driver/src/stm32f10x_spi.o
SPI_I2S_GetITStatus                               ../../src/stm/Libraries/STM32F10x_StdPeriph_Driver/src/stm32f10x_spi.o
SPI_I2S_ITConfig                                  ../../src/stm/Libraries/STM32F10x_StdPeriph_Driver/src/stm32f10x_spi.o
SPI_I2S_ReceiveData                               ../../src/stm/Libraries/STM32F10x_StdPeriph_Driver/src/stm32f10x_spi.o
SPI_I2S_SendData                                  ../../src/stm/Libraries/STM32F10x_StdPeriph_Driver/src/stm32f10x_spi.o
SPI_Init                                          ../../src/stm/Libraries/STM32F10x_StdPeriph_Driver/src/stm32f10x_spi.o
SPI_NSSInternalSoftwareConfig                     ../../src/stm/Libraries/STM32F10x_StdPeriph_Driver/src/stm32f10x_spi.o
SPI_SSOutputCmd                                   ../../src/stm/Libraries/STM32F10x_StdPeriph_Driver/src/stm32f10x_spi.o
SPI_StructInit                                    ../../src/stm/Libraries/STM32F10x_StdPeriph_Driver/src/stm32f10x_spi.o
SPI_TransmitCRC                                   ../../src/stm/Libraries/STM32F10x_StdPeriph_Driver/src/stm32f10x_spi.o
SVC_Handler                                       ../../src/stm/stm32f10x_it.o
SaveRState                                        ../../src/stm/Libraries/STM32_USB-FS-Device_Driver/src/usb_int.o
                                                  ../../src/stm/Libraries/STM32_USB-FS-Device_Driver/src/usb_core.o
SaveState                                         ../../src/stm/Libraries/STM32_USB-FS-Device_Driver/src/usb_init.o
SaveTState                                        ../../src/stm/Libraries/STM32_USB-FS-Device_Driver/src/usb_int.o
                                                  ../../src/stm/Libraries/STM32_USB-FS-Device_Driver/src/usb_core.o
SendAPDU                                          ../../src/ccid/CcidLocalAccess.o
SendTPDU                                          ../../src/ccid/CcidLocalAccess.o
SetBTABLE                                         ../../src/stm/Libraries/STM32_USB-FS-Device_Driver/src/usb_regs.o
                                                  ../../src/sd-disk/sd-usb/usb_prop.o
                                                  ../../src/ccid/CCIDHID_USB/CCIDHID_usb_prop.o
SetCNTR                                           ../../src/stm/Libraries/STM32_USB-FS-Device_Driver/src/usb_regs.o
SetDADDR                                          ../../src/stm/Libraries/STM32_USB-FS-Device_Driver/src/usb_regs.o
SetDeviceAddress                                  ../../src/stm/Libraries/STM32_USB-FS-Device_Driver/src/usb_core.o
                                                  ../../src/sd-disk/sd-usb/usb_prop.o
                                                  ../../src/ccid/CCIDHID_USB/CCIDHID_usb_prop.o
SetDouBleBuffEPStall                              ../../src/stm/Libraries/STM32_USB-FS-Device_Driver/src/usb_regs.o
SetENDPOINT                                       ../../src/stm/Libraries/STM32_USB-FS-Device_Driver/src/usb_regs.o
SetEPAddress                                      ../../src/stm/Libraries/STM32_USB-FS-Device_Driver/src/usb_regs.o
SetEPCountRxReg                                   ../../src/stm/Libraries/STM32_USB-FS-Device_Driver/src/usb_regs.o
SetEPDblBuf0Addr                                  ../../src/stm/Libraries/STM32_USB-FS-Device_Driver/src/usb_regs.o
SetEPDblBuf0Count                                 ../../src/stm/Libraries/STM32_USB-FS-Device_Driver/src/usb_regs.o
SetEPDblBuf1Addr                                  ../../src/stm/Libraries/STM32_USB-FS-Device_Driver/src/usb_regs.o
SetEPDblBuf1Count                                 ../../src/stm/Libraries/STM32_USB-FS-Device_Driver/src/usb_regs.o
SetEPDblBuffAddr                                  ../../src/stm/Libraries/STM32_USB-FS-Device_Driver/src/usb_regs.o
SetEPDblBuffCount                                 ../../src/stm/Libraries/STM32_USB-FS-Device_Driver/src/usb_regs.o
SetEPDoubleBuff                                   ../../src/stm/Libraries/STM32_USB-FS-Device_Driver/src/usb_regs.o
SetEPRxAddr                                       ../../src/stm/Libraries/STM32_USB-FS-Device_Driver/src/usb_regs.o
                                                  ../../src/sd-disk/sd-usb/usb_prop.o
                                                  ../../src/ccid/CCIDHID_USB/CCIDHID_usb_prop.o
SetEPRxCount                                      ../../src/stm/Libraries/STM32_USB-FS-Device_Driver/src/usb_regs.o
                                                  ../../src/stm/Libraries/STM32_USB-FS-Device_Driver/src/usb_core.o
                                                  ../../src/sd-disk/sd-usb/usb_prop.o
                                                  ../../src/ccid/CCIDHID_USB/CCIDHID_usb_prop.o
SetEPRxStatus                                     ../../src/stm/Libraries/STM32_USB-FS-Device_Driver/src/usb_regs.o
                                                  ../../src/usb/usb_bot.o
                                                  ../../src/sd-disk/sd-usb/usb_prop.o
                                                  ../../src/ccid/CCIDHID_USB/CCIDHID_usb_prop.o
                                                  ../../src/ccid/Ccid_usb.o
SetEPRxValid                                      ../../src/stm/Libraries/STM32_USB-FS-Device_Driver/src/usb_regs.o
                                                  ../../src/sd-disk/sd-usb/usb_prop.o
                                                  ../../src/ccid/CCIDHID_USB/CCIDHID_usb_prop.o
SetEPTxAddr                                       ../../src/stm/Libraries/STM32_USB-FS-Device_Driver/src/usb_regs.o
                                                  ../../src/sd-disk/sd-usb/usb_prop.o
                                                  ../../src/ccid/CCIDHID_USB/CCIDHID_usb_prop.o
SetEPTxCount                                      ../../src/stm/Libraries/STM32_USB-FS-Device_Driver/src/usb_regs.o
                                                  ../../src/usb/usb_bot.o
                                                  ../../src/keyboard/keyboard.o
                                                  ../../src/stm/Libraries/STM32_USB-FS-Device_Driver/src/usb_core.o
                                                  ../../src/ccid/CCIDHID_USB/CCIDHID_usb_prop.o
                                                  ../../src/ccid/Ccid_usb.o
SetEPTxStatus                                     ../../src/stm/Libraries/STM32_USB-FS-Device_Driver/src/usb_regs.o
                                                  ../../src/usb/usb_bot.o
                                                  ../../src/keyboard/keyboard.o
                                                  ../../src/stm/Libraries/STM32_USB-FS-Device_Driver/src/usb_core.o
                                                  ../../src/sd-disk/sd-usb/usb_prop.o
                                                  ../../src/ccid/CCIDHID_USB/CCIDHID_usb_prop.o
                                                  ../../src/ccid/Ccid_usb.o
SetEPTxValid                                      ../../src/stm/Libraries/STM32_USB-FS-Device_Driver/src/usb_regs.o
SetEPType                                         ../../src/stm/Libraries/STM32_USB-FS-Device_Driver/src/usb_regs.o
                                                  ../../src/sd-disk/sd-usb/usb_prop.o
                                                  ../../src/ccid/CCIDHID_USB/CCIDHID_usb_prop.o
SetEP_KIND                                        ../../src/stm/Libraries/STM32_USB-FS-Device_Driver/src/usb_regs.o
SetISTR                                           ../../src/stm/Libraries/STM32_USB-FS-Device_Driver/src/usb_regs.o
SetSdCardNotFilledWithRandomCharsToFlash          ../../src/pwd-safe/FlashStorage.o
                                                  ../../src/pwd-safe/HandleAesStorageKey.o
SetStickKeysNotInitatedToFlash                    ../../src/pwd-safe/FlashStorage.o
                                                  ../../src/pwd-safe/HandleAesStorageKey.o
Set_CSW                                           ../../src/usb/usb_bot.o
Set_Status_Out                                    ../../src/stm/Libraries/STM32_USB-FS-Device_Driver/src/usb_regs.o
Set_System                                        ../../src/hw_config.o
                                                  ../../src/main.o
Set_USBClock                                      ../../src/hw_config.o
                                                  ../../src/usb/usb_pwr.o
Setup0_Process                                    ../../src/stm/Libraries/STM32_USB-FS-Device_Driver/src/usb_core.o
                                                  ../../src/stm/Libraries/STM32_USB-FS-Device_Driver/src/usb_int.o
SlotStabilizationDelay                            ../../src/ccid/Ccid_usb.o
SmartCardInitInterface                            ../../src/ccid/smartcard/smartcard.o
                                                  ../../src/ccid/CcidLocalAccess.o
                                                  ../../src/main.o
SmartcardOff                                      ../../src/ccid/smartcard/smartcard.o
SmartcardOn                                       ../../src/ccid/smartcard/smartcard.o
Standard_ClearFeature                             ../../src/stm/Libraries/STM32_USB-FS-Device_Driver/src/usb_core.o
Standard_GetConfiguration                         ../../src/stm/Libraries/STM32_USB-FS-Device_Driver/src/usb_core.o
Standard_GetDescriptorData                        ../../src/stm/Libraries/STM32_USB-FS-Device_Driver/src/usb_core.o
                                                  ../../src/sd-disk/sd-usb/usb_prop.o
                                                  ../../src/ccid/CCIDHID_USB/CCIDHID_usb_prop.o
Standard_GetInterface                             ../../src/stm/Libraries/STM32_USB-FS-Device_Driver/src/usb_core.o
Standard_GetStatus                                ../../src/stm/Libraries/STM32_USB-FS-Device_Driver/src/usb_core.o
Standard_SetConfiguration                         ../../src/stm/Libraries/STM32_USB-FS-Device_Driver/src/usb_core.o
Standard_SetDeviceFeature                         ../../src/stm/Libraries/STM32_USB-FS-Device_Driver/src/usb_core.o
Standard_SetEndPointFeature                       ../../src/stm/Libraries/STM32_USB-FS-Device_Driver/src/usb_core.o
Standard_SetInterface                             ../../src/stm/Libraries/STM32_USB-FS-Device_Driver/src/usb_core.o
StartBlinkingOATHLED                              ../../src/hw_config.o
                                                  ../../src/hotp/hotp.o
StartupCheck_u8                                   ../../src/pwd-safe/HandleAesStorageKey.o
                                                  ../../src/main.o
StatusInfo                                        ../../src/stm/Libraries/STM32_USB-FS-Device_Driver/src/usb_core.o
StickConfiguration_st                             ../../src/pwd-safe/FlashStorage.o
                                                  ../../src/pwd-safe/HandleAesStorageKey.o
String_Descriptor                                 ../../src/sd-disk/sd-usb/usb_prop.o
                                                  ../../src/stm/Libraries/STM32_USB-FS-Device_Driver/src/usb_init.o
                                                  ../../src/ccid/CCIDHID_USB/CCIDHID_usb_prop.o
Suspend                                           ../../src/usb/usb_pwr.o
                                                  ../../src/usb/usb_istr.o
SwitchOATHLED                                     ../../src/hw_config.o
                                                  ../../src/stm/stm32f10x_it.o
SwitchSmartcardLED                                ../../src/hw_config.o
                                                  ../../src/ccid/smartcard/smartcard.o
SysTick_CLKSourceConfig                           ../../src/stm/Libraries/STM32F10x_StdPeriph_Driver/src/misc.o
SysTick_CounterCmd                                ../../src/stm/stm32f10x_systick.o
                                                  ../../src/hw_config.o
SysTick_GetCounter                                ../../src/stm/stm32f10x_systick.o
SysTick_GetFlagStatus                             ../../src/stm/stm32f10x_systick.o
SysTick_Handler                                   ../../src/stm/stm32f10x_it.o
SysTick_ITConfig                                  ../../src/stm/stm32f10x_systick.o
SysTick_SetReload                                 ../../src/stm/stm32f10x_systick.o
SystemFrequency                                   ../../src/stm/Libraries/CMSIS/Core/CM3/system_stm32f10x.o
SystemFrequency_AHBClk                            ../../src/stm/Libraries/CMSIS/Core/CM3/system_stm32f10x.o
SystemFrequency_APB1Clk                           ../../src/stm/Libraries/CMSIS/Core/CM3/system_stm32f10x.o
SystemFrequency_APB2Clk                           ../../src/stm/Libraries/CMSIS/Core/CM3/system_stm32f10x.o
SystemFrequency_SysClk                            ../../src/stm/Libraries/CMSIS/Core/CM3/system_stm32f10x.o
SystemInit                                        ../../src/stm/Libraries/CMSIS/Core/CM3/system_stm32f10x.o
                                                  ../../src/hw_config.o
SystemInit_ExtMemCtl                              ../../src/stm/Libraries/CMSIS/Core/CM3/startup/gcc/startup_stm32f10x_hd.o
SystemInit_ExtMemCtl_Dummy                        ../../src/stm/Libraries/CMSIS/Core/CM3/startup/gcc/startup_stm32f10x_hd.o
TAMPER_IRQHandler                                 ../../src/stm/Libraries/CMSIS/Core/CM3/startup/gcc/startup_stm32f10x_hd.o
TIM1_BRK_IRQHandler                               ../../src/stm/Libraries/CMSIS/Core/CM3/startup/gcc/startup_stm32f10x_hd.o
TIM1_CC_IRQHandler                                ../../src/stm/Libraries/CMSIS/Core/CM3/startup/gcc/startup_stm32f10x_hd.o
TIM1_TRG_COM_IRQHandler                           ../../src/stm/Libraries/CMSIS/Core/CM3/startup/gcc/startup_stm32f10x_hd.o
TIM1_UP_IRQHandler                                ../../src/stm/Libraries/CMSIS/Core/CM3/startup/gcc/startup_stm32f10x_hd.o
TIM2_IRQHandler                                   ../../src/stm/stm32f10x_it.o
TIM3_IRQHandler                                   ../../src/stm/Libraries/CMSIS/Core/CM3/startup/gcc/startup_stm32f10x_hd.o
TIM4_IRQHandler                                   ../../src/stm/Libraries/CMSIS/Core/CM3/startup/gcc/startup_stm32f10x_hd.o
TIM5_IRQHandler                                   ../../src/stm/Libraries/CMSIS/Core/CM3/startup/gcc/startup_stm32f10x_hd.o
TIM6_IRQHandler                                   ../../src/stm/Libraries/CMSIS/Core/CM3/startup/gcc/startup_stm32f10x_hd.o
TIM7_IRQHandler                                   ../../src/stm/Libraries/CMSIS/Core/CM3/startup/gcc/startup_stm32f10x_hd.o
TIM8_BRK_IRQHandler                               ../../src/stm/Libraries/CMSIS/Core/CM3/startup/gcc/startup_stm32f10x_hd.o
TIM8_CC_IRQHandler                                ../../src/stm/Libraries/CMSIS/Core/CM3/startup/gcc/startup_stm32f10x_hd.o
TIM8_TRG_COM_IRQHandler                           ../../src/stm/Libraries/CMSIS/Core/CM3/startup/gcc/startup_stm32f10x_hd.o
TIM8_UP_IRQHandler                                ../../src/stm/Libraries/CMSIS/Core/CM3/startup/gcc/startup_stm32f10x_hd.o
TIM_ARRPreloadConfig                              ../../src/stm/Libraries/STM32F10x_StdPeriph_Driver/src/stm32f10x_tim.o
TIM_BDTRConfig                                    ../../src/stm/Libraries/STM32F10x_StdPeriph_Driver/src/stm32f10x_tim.o
TIM_BDTRStructInit                                ../../src/stm/Libraries/STM32F10x_StdPeriph_Driver/src/stm32f10x_tim.o
TIM_CCPreloadControl                              ../../src/stm/Libraries/STM32F10x_StdPeriph_Driver/src/stm32f10x_tim.o
TIM_CCxCmd                                        ../../src/stm/Libraries/STM32F10x_StdPeriph_Driver/src/stm32f10x_tim.o
TIM_CCxNCmd                                       ../../src/stm/Libraries/STM32F10x_StdPeriph_Driver/src/stm32f10x_tim.o
TIM_ClearFlag                                     ../../src/stm/Libraries/STM32F10x_StdPeriph_Driver/src/stm32f10x_tim.o
TIM_ClearITPendingBit                             ../../src/stm/Libraries/STM32F10x_StdPeriph_Driver/src/stm32f10x_tim.o
TIM_ClearOC1Ref                                   ../../src/stm/Libraries/STM32F10x_StdPeriph_Driver/src/stm32f10x_tim.o
TIM_ClearOC2Ref                                   ../../src/stm/Libraries/STM32F10x_StdPeriph_Driver/src/stm32f10x_tim.o
TIM_ClearOC3Ref                                   ../../src/stm/Libraries/STM32F10x_StdPeriph_Driver/src/stm32f10x_tim.o
TIM_ClearOC4Ref                                   ../../src/stm/Libraries/STM32F10x_StdPeriph_Driver/src/stm32f10x_tim.o
TIM_Cmd                                           ../../src/stm/Libraries/STM32F10x_StdPeriph_Driver/src/stm32f10x_tim.o
                                                  ../../src/hw_config.o
TIM_CounterModeConfig                             ../../src/stm/Libraries/STM32F10x_StdPeriph_Driver/src/stm32f10x_tim.o
TIM_CtrlPWMOutputs                                ../../src/stm/Libraries/STM32F10x_StdPeriph_Driver/src/stm32f10x_tim.o
TIM_DMACmd                                        ../../src/stm/Libraries/STM32F10x_StdPeriph_Driver/src/stm32f10x_tim.o
TIM_DMAConfig                                     ../../src/stm/Libraries/STM32F10x_StdPeriph_Driver/src/stm32f10x_tim.o
TIM_DeInit                                        ../../src/stm/Libraries/STM32F10x_StdPeriph_Driver/src/stm32f10x_tim.o
TIM_ETRClockMode1Config                           ../../src/stm/Libraries/STM32F10x_StdPeriph_Driver/src/stm32f10x_tim.o
TIM_ETRClockMode2Config                           ../../src/stm/Libraries/STM32F10x_StdPeriph_Driver/src/stm32f10x_tim.o
TIM_ETRConfig                                     ../../src/stm/Libraries/STM32F10x_StdPeriph_Driver/src/stm32f10x_tim.o
TIM_EncoderInterfaceConfig                        ../../src/stm/Libraries/STM32F10x_StdPeriph_Driver/src/stm32f10x_tim.o
TIM_ForcedOC1Config                               ../../src/stm/Libraries/STM32F10x_StdPeriph_Driver/src/stm32f10x_tim.o
TIM_ForcedOC2Config                               ../../src/stm/Libraries/STM32F10x_StdPeriph_Driver/src/stm32f10x_tim.o
TIM_ForcedOC3Config                               ../../src/stm/Libraries/STM32F10x_StdPeriph_Driver/src/stm32f10x_tim.o
TIM_ForcedOC4Config                               ../../src/stm/Libraries/STM32F10x_StdPeriph_Driver/src/stm32f10x_tim.o
TIM_GenerateEvent                                 ../../src/stm/Libraries/STM32F10x_StdPeriph_Driver/src/stm32f10x_tim.o
TIM_GetCapture1                                   ../../src/stm/Libraries/STM32F10x_StdPeriph_Driver/src/stm32f10x_tim.o
TIM_GetCapture2                                   ../../src/stm/Libraries/STM32F10x_StdPeriph_Driver/src/stm32f10x_tim.o
TIM_GetCapture3                                   ../../src/stm/Libraries/STM32F10x_StdPeriph_Driver/src/stm32f10x_tim.o
TIM_GetCapture4                                   ../../src/stm/Libraries/STM32F10x_StdPeriph_Driver/src/stm32f10x_tim.o
TIM_GetCounter                                    ../../src/stm/Libraries/STM32F10x_StdPeriph_Driver/src/stm32f10x_tim.o
TIM_GetFlagStatus                                 ../../src/stm/Libraries/STM32F10x_StdPeriph_Driver/src/stm32f10x_tim.o
TIM_GetITStatus                                   ../../src/stm/Libraries/STM32F10x_StdPeriph_Driver/src/stm32f10x_tim.o
TIM_GetPrescaler                                  ../../src/stm/Libraries/STM32F10x_StdPeriph_Driver/src/stm32f10x_tim.o
TIM_ICInit                                        ../../src/stm/Libraries/STM32F10x_StdPeriph_Driver/src/stm32f10x_tim.o
TIM_ICStructInit                                  ../../src/stm/Libraries/STM32F10x_StdPeriph_Driver/src/stm32f10x_tim.o
TIM_ITConfig                                      ../../src/stm/Libraries/STM32F10x_StdPeriph_Driver/src/stm32f10x_tim.o
                                                  ../../src/hw_config.o
TIM_ITRxExternalClockConfig                       ../../src/stm/Libraries/STM32F10x_StdPeriph_Driver/src/stm32f10x_tim.o
TIM_InternalClockConfig                           ../../src/stm/Libraries/STM32F10x_StdPeriph_Driver/src/stm32f10x_tim.o
TIM_OC1FastConfig                                 ../../src/stm/Libraries/STM32F10x_StdPeriph_Driver/src/stm32f10x_tim.o
TIM_OC1Init                                       ../../src/stm/Libraries/STM32F10x_StdPeriph_Driver/src/stm32f10x_tim.o
TIM_OC1NPolarityConfig                            ../../src/stm/Libraries/STM32F10x_StdPeriph_Driver/src/stm32f10x_tim.o
TIM_OC1PolarityConfig                             ../../src/stm/Libraries/STM32F10x_StdPeriph_Driver/src/stm32f10x_tim.o
TIM_OC1PreloadConfig                              ../../src/stm/Libraries/STM32F10x_StdPeriph_Driver/src/stm32f10x_tim.o
TIM_OC2FastConfig                                 ../../src/stm/Libraries/STM32F10x_StdPeriph_Driver/src/stm32f10x_tim.o
TIM_OC2Init                                       ../../src/stm/Libraries/STM32F10x_StdPeriph_Driver/src/stm32f10x_tim.o
TIM_OC2NPolarityConfig                            ../../src/stm/Libraries/STM32F10x_StdPeriph_Driver/src/stm32f10x_tim.o
TIM_OC2PolarityConfig                             ../../src/stm/Libraries/STM32F10x_StdPeriph_Driver/src/stm32f10x_tim.o
TIM_OC2PreloadConfig                              ../../src/stm/Libraries/STM32F10x_StdPeriph_Driver/src/stm32f10x_tim.o
TIM_OC3FastConfig                                 ../../src/stm/Libraries/STM32F10x_StdPeriph_Driver/src/stm32f10x_tim.o
TIM_OC3Init                                       ../../src/stm/Libraries/STM32F10x_StdPeriph_Driver/src/stm32f10x_tim.o
TIM_OC3NPolarityConfig                            ../../src/stm/Libraries/STM32F10x_StdPeriph_Driver/src/stm32f10x_tim.o
TIM_OC3PolarityConfig                             ../../src/stm/Libraries/STM32F10x_StdPeriph_Driver/src/stm32f10x_tim.o
TIM_OC3PreloadConfig                              ../../src/stm/Libraries/STM32F10x_StdPeriph_Driver/src/stm32f10x_tim.o
TIM_OC4FastConfig                                 ../../src/stm/Libraries/STM32F10x_StdPeriph_Driver/src/stm32f10x_tim.o
TIM_OC4Init                                       ../../src/stm/Libraries/STM32F10x_StdPeriph_Driver/src/stm32f10x_tim.o
TIM_OC4PolarityConfig                             ../../src/stm/Libraries/STM32F10x_StdPeriph_Driver/src/stm32f10x_tim.o
TIM_OC4PreloadConfig                              ../../src/stm/Libraries/STM32F10x_StdPeriph_Driver/src/stm32f10x_tim.o
TIM_OCStructInit                                  ../../src/stm/Libraries/STM32F10x_StdPeriph_Driver/src/stm32f10x_tim.o
TIM_PWMIConfig                                    ../../src/stm/Libraries/STM32F10x_StdPeriph_Driver/src/stm32f10x_tim.o
TIM_PrescalerConfig                               ../../src/stm/Libraries/STM32F10x_StdPeriph_Driver/src/stm32f10x_tim.o
TIM_SelectCCDMA                                   ../../src/stm/Libraries/STM32F10x_StdPeriph_Driver/src/stm32f10x_tim.o
TIM_SelectCOM                                     ../../src/stm/Libraries/STM32F10x_StdPeriph_Driver/src/stm32f10x_tim.o
TIM_SelectHallSensor                              ../../src/stm/Libraries/STM32F10x_StdPeriph_Driver/src/stm32f10x_tim.o
TIM_SelectInputTrigger                            ../../src/stm/Libraries/STM32F10x_StdPeriph_Driver/src/stm32f10x_tim.o
TIM_SelectMasterSlaveMode                         ../../src/stm/Libraries/STM32F10x_StdPeriph_Driver/src/stm32f10x_tim.o
TIM_SelectOCxM                                    ../../src/stm/Libraries/STM32F10x_StdPeriph_Driver/src/stm32f10x_tim.o
TIM_SelectOnePulseMode                            ../../src/stm/Libraries/STM32F10x_StdPeriph_Driver/src/stm32f10x_tim.o
TIM_SelectOutputTrigger                           ../../src/stm/Libraries/STM32F10x_StdPeriph_Driver/src/stm32f10x_tim.o
TIM_SelectSlaveMode                               ../../src/stm/Libraries/STM32F10x_StdPeriph_Driver/src/stm32f10x_tim.o
TIM_SetAutoreload                                 ../../src/stm/Libraries/STM32F10x_StdPeriph_Driver/src/stm32f10x_tim.o
TIM_SetClockDivision                              ../../src/stm/Libraries/STM32F10x_StdPeriph_Driver/src/stm32f10x_tim.o
TIM_SetCompare1                                   ../../src/stm/Libraries/STM32F10x_StdPeriph_Driver/src/stm32f10x_tim.o
TIM_SetCompare2                                   ../../src/stm/Libraries/STM32F10x_StdPeriph_Driver/src/stm32f10x_tim.o
TIM_SetCompare3                                   ../../src/stm/Libraries/STM32F10x_StdPeriph_Driver/src/stm32f10x_tim.o
TIM_SetCompare4                                   ../../src/stm/Libraries/STM32F10x_StdPeriph_Driver/src/stm32f10x_tim.o
TIM_SetCounter                                    ../../src/stm/Libraries/STM32F10x_StdPeriph_Driver/src/stm32f10x_tim.o
TIM_SetIC1Prescaler                               ../../src/stm/Libraries/STM32F10x_StdPeriph_Driver/src/stm32f10x_tim.o
TIM_SetIC2Prescaler                               ../../src/stm/Libraries/STM32F10x_StdPeriph_Driver/src/stm32f10x_tim.o
TIM_SetIC3Prescaler                               ../../src/stm/Libraries/STM32F10x_StdPeriph_Driver/src/stm32f10x_tim.o
TIM_SetIC4Prescaler                               ../../src/stm/Libraries/STM32F10x_StdPeriph_Driver/src/stm32f10x_tim.o
TIM_TIxExternalClockConfig                        ../../src/stm/Libraries/STM32F10x_StdPeriph_Driver/src/stm32f10x_tim.o
TIM_TimeBaseInit                                  ../../src/stm/Libraries/STM32F10x_StdPeriph_Driver/src/stm32f10x_tim.o
                                                  ../../src/hw_config.o
TIM_TimeBaseStructInit                            ../../src/stm/Libraries/STM32F10x_StdPeriph_Driver/src/stm32f10x_tim.o
TIM_UpdateDisableConfig                           ../../src/stm/Libraries/STM32F10x_StdPeriph_Driver/src/stm32f10x_tim.o
TIM_UpdateRequestConfig                           ../../src/stm/Libraries/STM32F10x_StdPeriph_Driver/src/stm32f10x_tim.o
Test1                                             ../../src/main.o
TimeCounter                                       ../../src/stm/stm32f10x_it.o
TimingDelay                                       ../../src/stm/stm32f10x_it.o
                                                  ../../src/ccid/smartcard/smartcard.o
ToWord                                            ../../src/stm/Libraries/STM32_USB-FS-Device_Driver/src/usb_regs.o
ToggleDTOG_RX                                     ../../src/stm/Libraries/STM32_USB-FS-Device_Driver/src/usb_regs.o
ToggleDTOG_TX                                     ../../src/stm/Libraries/STM32_USB-FS-Device_Driver/src/usb_regs.o
Transfer_Data_Request                             ../../src/usb/usb_bot.o
UART4_IRQHandler                                  ../../src/stm/Libraries/CMSIS/Core/CM3/startup/gcc/startup_stm32f10x_hd.o
UART5_IRQHandler                                  ../../src/stm/Libraries/CMSIS/Core/CM3/startup/gcc/startup_stm32f10x_hd.o
USART1_IRQHandler                                 ../../src/stm/Libraries/CMSIS/Core/CM3/startup/gcc/startup_stm32f10x_hd.o
USART2_IRQHandler                                 ../../src/stm/Libraries/CMSIS/Core/CM3/startup/gcc/startup_stm32f10x_hd.o
USART3_IRQHandler                                 ../../src/stm/Libraries/CMSIS/Core/CM3/startup/gcc/startup_stm32f10x_hd.o
USART_ClearFlag                                   ../../src/stm/Libraries/STM32F10x_StdPeriph_Driver/src/stm32f10x_usart.o
USART_ClearITPendingBit                           ../../src/stm/Libraries/STM32F10x_StdPeriph_Driver/src/stm32f10x_usart.o
USART_ClockInit                                   ../../src/stm/Libraries/STM32F10x_StdPeriph_Driver/src/stm32f10x_usart.o
                                                  ../../src/ccid/smartcard/smartcard.o
USART_ClockStructInit                             ../../src/stm/Libraries/STM32F10x_StdPeriph_Driver/src/stm32f10x_usart.o
USART_Cmd                                         ../../src/stm/Libraries/STM32F10x_StdPeriph_Driver/src/stm32f10x_usart.o
                                                  ../../src/ccid/smartcard/smartcard.o
USART_DMACmd                                      ../../src/stm/Libraries/STM32F10x_StdPeriph_Driver/src/stm32f10x_usart.o
                                                  ../../src/ccid/smartcard/smartcard.o
USART_DeInit                                      ../../src/stm/Libraries/STM32F10x_StdPeriph_Driver/src/stm32f10x_usart.o
                                                  ../../src/ccid/smartcard/smartcard.o
USART_GetFlagStatus                               ../../src/stm/Libraries/STM32F10x_StdPeriph_Driver/src/stm32f10x_usart.o
                                                  ../../src/ccid/smartcard/smartcard.o
USART_GetITStatus                                 ../../src/stm/Libraries/STM32F10x_StdPeriph_Driver/src/stm32f10x_usart.o
USART_HalfDuplexCmd                               ../../src/stm/Libraries/STM32F10x_StdPeriph_Driver/src/stm32f10x_usart.o
USART_ITConfig                                    ../../src/stm/Libraries/STM32F10x_StdPeriph_Driver/src/stm32f10x_usart.o
                                                  ../../src/ccid/smartcard/smartcard.o
USART_Init                                        ../../src/stm/Libraries/STM32F10x_StdPeriph_Driver/src/stm32f10x_usart.o
                                                  ../../src/ccid/smartcard/smartcard.o
USART_IrDACmd                                     ../../src/stm/Libraries/STM32F10x_StdPeriph_Driver/src/stm32f10x_usart.o
USART_IrDAConfig                                  ../../src/stm/Libraries/STM32F10x_StdPeriph_Driver/src/stm32f10x_usart.o
USART_LINBreakDetectLengthConfig                  ../../src/stm/Libraries/STM32F10x_StdPeriph_Driver/src/stm32f10x_usart.o
USART_LINCmd                                      ../../src/stm/Libraries/STM32F10x_StdPeriph_Driver/src/stm32f10x_usart.o
USART_ReceiveData                                 ../../src/stm/Libraries/STM32F10x_StdPeriph_Driver/src/stm32f10x_usart.o
                                                  ../../src/ccid/smartcard/smartcard.o
USART_ReceiverWakeUpCmd                           ../../src/stm/Libraries/STM32F10x_StdPeriph_Driver/src/stm32f10x_usart.o
USART_SendBreak                                   ../../src/stm/Libraries/STM32F10x_StdPeriph_Driver/src/stm32f10x_usart.o
USART_SendData                                    ../../src/stm/Libraries/STM32F10x_StdPeriph_Driver/src/stm32f10x_usart.o
                                                  ../../src/ccid/smartcard/smartcard.o
USART_SetAddress                                  ../../src/stm/Libraries/STM32F10x_StdPeriph_Driver/src/stm32f10x_usart.o
USART_SetGuardTime                                ../../src/stm/Libraries/STM32F10x_StdPeriph_Driver/src/stm32f10x_usart.o
                                                  ../../src/ccid/smartcard/smartcard.o
USART_SetPrescaler                                ../../src/stm/Libraries/STM32F10x_StdPeriph_Driver/src/stm32f10x_usart.o
                                                  ../../src/ccid/smartcard/smartcard.o
USART_SmartCardCmd                                ../../src/stm/Libraries/STM32F10x_StdPeriph_Driver/src/stm32f10x_usart.o
                                                  ../../src/ccid/smartcard/smartcard.o
USART_SmartCardNACKCmd                            ../../src/stm/Libraries/STM32F10x_StdPeriph_Driver/src/stm32f10x_usart.o
                                                  ../../src/ccid/smartcard/smartcard.o
USART_StructInit                                  ../../src/stm/Libraries/STM32F10x_StdPeriph_Driver/src/stm32f10x_usart.o
USART_WakeUpConfig                                ../../src/stm/Libraries/STM32F10x_StdPeriph_Driver/src/stm32f10x_usart.o
USBWakeUp_IRQHandler                              ../../src/stm/Libraries/CMSIS/Core/CM3/startup/gcc/startup_stm32f10x_hd.o
USB_CCID_Data_Setup                               ../../src/ccid/CCIDHID_USB/CCIDHID_usb_prop.o
USB_CCID_GetConfigDescriptor                      ../../src/ccid/CCIDHID_USB/CCIDHID_usb_prop.o
USB_CCID_GetDeviceDescriptor                      ../../src/ccid/CCIDHID_USB/CCIDHID_usb_prop.o
USB_CCID_GetStringDescriptor                      ../../src/ccid/CCIDHID_USB/CCIDHID_usb_prop.o
USB_CCID_Get_Interface_Setting                    ../../src/ccid/CCIDHID_USB/CCIDHID_usb_prop.o
USB_CCID_Get_Max_Lun                              ../../src/ccid/CCIDHID_USB/CCIDHID_usb_prop.o
USB_CCID_NoData_Setup                             ../../src/ccid/CCIDHID_USB/CCIDHID_usb_prop.o
USB_CCID_Reset                                    ../../src/ccid/CCIDHID_USB/CCIDHID_usb_prop.o
USB_CCID_Status_In                                ../../src/ccid/CCIDHID_USB/CCIDHID_usb_prop.o
USB_CCID_Status_Out                               ../../src/ccid/CCIDHID_USB/CCIDHID_usb_prop.o
USB_CCID_Storage_SetConfiguration                 ../../src/ccid/CCIDHID_USB/CCIDHID_usb_prop.o
USB_CCID_Storage_SetDeviceAddress                 ../../src/ccid/CCIDHID_USB/CCIDHID_usb_prop.o
USB_CCID_init                                     ../../src/ccid/CCIDHID_USB/CCIDHID_usb_prop.o
USB_Cable_Config                                  ../../src/hw_config.o
                                                  ../../src/usb/usb_pwr.o
USB_Disconnect_Config                             ../../src/hw_config.o
USB_HP_CAN1_TX_IRQHandler                         ../../src/stm/stm32f10x_it.o
USB_Init                                          ../../src/stm/Libraries/STM32_USB-FS-Device_Driver/src/usb_init.o
                                                  ../../src/usb/usb_pwr.o
USB_Interrupts_Config                             ../../src/hw_config.o
                                                  ../../src/usb/usb_pwr.o
USB_Istr                                          ../../src/usb/usb_istr.o
                                                  ../../src/stm/stm32f10x_it.o
USB_LP_CAN1_RX0_IRQHandler                        ../../src/stm/stm32f10x_it.o
USB_SetDeviceConfiguration                        ../../src/stm/Libraries/STM32_USB-FS-Device_Driver/src/usb_init.o
                                                  ../../src/main.o
USB_Start                                         ../../src/usb/usb_pwr.o
                                                  ../../src/main.o
UsageFault_Handler                                ../../src/stm/stm32f10x_it.o
UsbIntMessageBuffer                               ../../src/ccid/Ccid_usb.o
                                                  ../../src/ccid/Ifd_ccid.o
UsbMessageBuffer                                  ../../src/ccid/Ccid_usb.o
                                                  ../../src/ccid/Ifd_ccid.o
                                                  ../../src/ccid/Ifd_protocol.o
UsbMessageFlags                                   ../../src/ccid/Ccid_usb.o
                                                  ../../src/ccid/Ifd_ccid.o
UserToPMABufferCopy                               ../../src/stm/Libraries/STM32_USB-FS-Device_Driver/src/usb_mem.o
                                                  ../../src/usb/usb_bot.o
                                                  ../../src/keyboard/keyboard.o
                                                  ../../src/stm/Libraries/STM32_USB-FS-Device_Driver/src/usb_core.o
                                                  ../../src/ccid/Ccid_usb.o
User_Standard_Requests                            ../../src/sd-disk/sd-usb/usb_prop.o
                                                  ../../src/stm/Libraries/STM32_USB-FS-Device_Driver/src/usb_init.o
WWDG_ClearFlag                                    ../../src/stm/Libraries/STM32F10x_StdPeriph_Driver/src/stm32f10x_wwdg.o
WWDG_DeInit                                       ../../src/stm/Libraries/STM32F10x_StdPeriph_Driver/src/stm32f10x_wwdg.o
WWDG_Enable                                       ../../src/stm/Libraries/STM32F10x_StdPeriph_Driver/src/stm32f10x_wwdg.o
WWDG_EnableIT                                     ../../src/stm/Libraries/STM32F10x_StdPeriph_Driver/src/stm32f10x_wwdg.o
WWDG_GetFlagStatus                                ../../src/stm/Libraries/STM32F10x_StdPeriph_Driver/src/stm32f10x_wwdg.o
WWDG_IRQHandler                                   ../../src/stm/Libraries/CMSIS/Core/CM3/startup/gcc/startup_stm32f10x_hd.o
WWDG_SetCounter                                   ../../src/stm/Libraries/STM32F10x_StdPeriph_Driver/src/stm32f10x_wwdg.o
WWDG_SetPrescaler                                 ../../src/stm/Libraries/STM32F10x_StdPeriph_Driver/src/stm32f10x_wwdg.o
WWDG_SetWindowValue                               ../../src/stm/Libraries/STM32F10x_StdPeriph_Driver/src/stm32f10x_wwdg.o
WaitForATR                                        ../../src/ccid/smartcard/smartcard.o
WriteAESStorageKeyToUserPage                      ../../src/pwd-safe/FlashStorage.o
                                                  ../../src/pwd-safe/HandleAesStorageKey.o
WriteDebug                                        ../../src/pwd-safe/FlashStorage.o
WritePasswordSafeKey                              ../../src/pwd-safe/FlashStorage.o
                                                  ../../src/pwd-safe/password_safe.o
WriteStickConfigurationToUserPage                 ../../src/pwd-safe/FlashStorage.o
WriteXorPatternToFlash                            ../../src/pwd-safe/FlashStorage.o
                                                  ../../src/pwd-safe/HandleAesStorageKey.o
XEP3_IN_Callback                                  ../../src/usb/usb_endp.o
XorAesKey_u32                                     ../../src/pwd-safe/HandleAesStorageKey.o
__Init_Data                                       ../../src/stm/Libraries/CMSIS/Core/CM3/startup/gcc/startup_stm32f10x_hd.o
__LDREXB                                          ../../src/stm/Libraries/CMSIS/Core/CM3/core_cm3.o
__LDREXH                                          ../../src/stm/Libraries/CMSIS/Core/CM3/core_cm3.o
__LDREXW                                          ../../src/stm/Libraries/CMSIS/Core/CM3/core_cm3.o
__RBIT                                            ../../src/stm/Libraries/CMSIS/Core/CM3/core_cm3.o
__REV                                             ../../src/stm/Libraries/CMSIS/Core/CM3/core_cm3.o
__REV16                                           ../../src/stm/Libraries/CMSIS/Core/CM3/core_cm3.o
__REVSH                                           ../../src/stm/Libraries/CMSIS/Core/CM3/core_cm3.o
__STREXB                                          ../../src/stm/Libraries/CMSIS/Core/CM3/core_cm3.o
__STREXH                                          ../../src/stm/Libraries/CMSIS/Core/CM3/core_cm3.o
__STREXW                                          ../../src/stm/Libraries/CMSIS/Core/CM3/core_cm3.o
__aeabi_idiv0                                     /usr/lib/gcc/arm-none-eabi/4.8/armv7-m/libgcc.a(_dvmd_tls.o)
__aeabi_ldiv0                                     /usr/lib/gcc/arm-none-eabi/4.8/armv7-m/libgcc.a(_dvmd_tls.o)
                                                  /usr/lib/gcc/arm-none-eabi/4.8/armv7-m/libgcc.a(_aeabi_uldivmod.o)
__aeabi_uldivmod                                  /usr/lib/gcc/arm-none-eabi/4.8/armv7-m/libgcc.a(_aeabi_uldivmod.o)
                                                  ../../src/keyboard/report_protocol.o
                                                  ../../src/hotp/hotp.o
__divdi3                                          /usr/lib/gcc/arm-none-eabi/4.8/armv7-m/libgcc.a(_divdi3.o)
                                                  /usr/lib/gcc/arm-none-eabi/4.8/armv7-m/libgcc.a(bpabi.o)
__get_BASEPRI                                     ../../src/stm/Libraries/CMSIS/Core/CM3/core_cm3.o
__get_CONTROL                                     ../../src/stm/Libraries/CMSIS/Core/CM3/core_cm3.o
__get_FAULTMASK                                   ../../src/stm/Libraries/CMSIS/Core/CM3/core_cm3.o
__get_MSP                                         ../../src/stm/Libraries/CMSIS/Core/CM3/core_cm3.o
__get_PRIMASK                                     ../../src/stm/Libraries/CMSIS/Core/CM3/core_cm3.o
__get_PSP                                         ../../src/stm/Libraries/CMSIS/Core/CM3/core_cm3.o
__gnu_ldivmod_helper                              /usr/lib/gcc/arm-none-eabi/4.8/armv7-m/libgcc.a(bpabi.o)
__gnu_uldivmod_helper                             /usr/lib/gcc/arm-none-eabi/4.8/armv7-m/libgcc.a(bpabi.o)
                                                  /usr/lib/gcc/arm-none-eabi/4.8/armv7-m/libgcc.a(_aeabi_uldivmod.o)
__set_BASEPRI                                     ../../src/stm/Libraries/CMSIS/Core/CM3/core_cm3.o
__set_CONTROL                                     ../../src/stm/Libraries/CMSIS/Core/CM3/core_cm3.o
__set_FAULTMASK                                   ../../src/stm/Libraries/CMSIS/Core/CM3/core_cm3.o
__set_MSP                                         ../../src/stm/Libraries/CMSIS/Core/CM3/core_cm3.o
__set_PRIMASK                                     ../../src/stm/Libraries/CMSIS/Core/CM3/core_cm3.o
__set_PSP                                         ../../src/stm/Libraries/CMSIS/Core/CM3/core_cm3.o
__udivdi3                                         /usr/lib/gcc/arm-none-eabi/4.8/armv7-m/libgcc.a(_udivdi3.o)
                                                  /usr/lib/gcc/arm-none-eabi/4.8/armv7-m/libgcc.a(bpabi.o)
_ebss                                             ../../src/stm/Libraries/CMSIS/Core/CM3/startup/gcc/startup_stm32f10x_hd.o
_edata                                            ../../src/stm/Libraries/CMSIS/Core/CM3/startup/gcc/startup_stm32f10x_hd.o
_estack                                           ../../src/stm/Libraries/CMSIS/Core/CM3/startup/gcc/startup_stm32f10x_hd.o
_global_impure_ptr                                /usr/lib/gcc/arm-none-eabi/4.8/../../../arm-none-eabi/lib/armv7-m/libc.a(lib_a-impure.o)
_impure_ptr                                       /usr/lib/gcc/arm-none-eabi/4.8/../../../arm-none-eabi/lib/armv7-m/libc.a(lib_a-impure.o)
                                                  /usr/lib/gcc/arm-none-eabi/4.8/../../../arm-none-eabi/lib/armv7-m/libc.a(lib_a-rand.o)
_sbss                                             ../../src/stm/Libraries/CMSIS/Core/CM3/startup/gcc/startup_stm32f10x_hd.o
_sdata                                            ../../src/stm/Libraries/CMSIS/Core/CM3/startup/gcc/startup_stm32f10x_hd.o
_sidata                                           ../../src/stm/Libraries/CMSIS/Core/CM3/startup/gcc/startup_stm32f10x_hd.o
aes_crypt_cbc                                     ../../src/crypt/aes/aes.o
aes_crypt_cfb128                                  ../../src/crypt/aes/aes.o
aes_crypt_ecb                                     ../../src/crypt/aes/aes.o
                                                  ../../src/pwd-safe/password_safe.o
                                                  ../../src/pwd-safe/HandleAesStorageKey.o
aes_setkey_dec                                    ../../src/crypt/aes/aes.o
                                                  ../../src/pwd-safe/password_safe.o
aes_setkey_enc                                    ../../src/crypt/aes/aes.o
                                                  ../../src/pwd-safe/password_safe.o
                                                  ../../src/pwd-safe/HandleAesStorageKey.o
authorized_crc                                    ../../src/keyboard/report_protocol.o
authorized_user_crc                               ../../src/keyboard/report_protocol.o
bDeviceState                                      ../../src/usb/usb_pwr.o
                                                  ../../src/keyboard/keyboard.o
                                                  ../../src/sd-disk/sd-usb/usb_prop.o
                                                  ../../src/ccid/CCIDHID_USB/CCIDHID_usb_prop.o
                                                  ../../src/hw_config.o
bIntPackSOF                                       ../../src/usb/usb_istr.o
backup_data                                       ../../src/hotp/hotp.o
blinkOATHLEDTimes                                 ../../src/hw_config.o
                                                  ../../src/stm/stm32f10x_it.o
capsLockClicked                                   ../../src/ccid/CCIDHID_USB/CCIDHID_usb_prop.o
                                                  ../../src/main.o
cardAuthenticate                                  ../../src/ccid/CcidLocalAccess.o
                                                  ../../src/pwd-safe/HandleAesStorageKey.o
                                                  ../../src/keyboard/report_protocol.o
cardSerial                                        ../../src/hw_config.o
                                                  ../../src/keyboard/report_protocol.o
ch                                                ../../src/crypt/sha1/sha1.o
changeAdminPin                                    ../../src/ccid/CcidLocalAccess.o
                                                  ../../src/keyboard/report_protocol.o
changeUserPin                                     ../../src/ccid/CcidLocalAccess.o
                                                  ../../src/keyboard/report_protocol.o
check_backups                                     ../../src/hotp/hotp.o
                                                  ../../src/main.o
cmd_authorize                                     ../../src/keyboard/report_protocol.o
cmd_change_admin_pin                              ../../src/keyboard/report_protocol.o
cmd_change_user_pin                               ../../src/keyboard/report_protocol.o
cmd_detectSmartCardAES                            ../../src/keyboard/report_protocol.o
cmd_erase_slot                                    ../../src/keyboard/report_protocol.o
cmd_factory_reset                                 ../../src/keyboard/report_protocol.o
cmd_first_authenticate                            ../../src/keyboard/report_protocol.o
cmd_getPasswordSafeEnable                         ../../src/keyboard/report_protocol.o
cmd_getPasswordSafeEraseSlot                      ../../src/keyboard/report_protocol.o
cmd_getPasswordSafeInitKey                        ../../src/keyboard/report_protocol.o
cmd_getPasswordSafeSendData                       ../../src/keyboard/report_protocol.o
cmd_getPasswordSafeSlotLoginName                  ../../src/keyboard/report_protocol.o
cmd_getPasswordSafeSlotName                       ../../src/keyboard/report_protocol.o
cmd_getPasswordSafeSlotPassword                   ../../src/keyboard/report_protocol.o
cmd_getPasswordSafeStatus                         ../../src/keyboard/report_protocol.o
cmd_getProDebug                                   ../../src/keyboard/report_protocol.o
cmd_get_code                                      ../../src/keyboard/report_protocol.o
cmd_get_password_retry_count                      ../../src/keyboard/report_protocol.o
cmd_get_status                                    ../../src/keyboard/report_protocol.o
cmd_get_user_password_retry_count                 ../../src/keyboard/report_protocol.o
cmd_lockDevice                                    ../../src/keyboard/report_protocol.o
cmd_newAesKey                                     ../../src/keyboard/report_protocol.o
cmd_read_slot                                     ../../src/keyboard/report_protocol.o
cmd_read_slot_name                                ../../src/keyboard/report_protocol.o
cmd_setPasswordSafeSetSlotData_1                  ../../src/keyboard/report_protocol.o
cmd_setPasswordSafeSetSlotData_2                  ../../src/keyboard/report_protocol.o
cmd_set_time                                      ../../src/keyboard/report_protocol.o
cmd_user_authenticate                             ../../src/keyboard/report_protocol.o
cmd_user_authorize                                ../../src/keyboard/report_protocol.o
cmd_write_config                                  ../../src/keyboard/report_protocol.o
cmd_write_to_slot                                 ../../src/keyboard/report_protocol.o
crc                                               ../../src/hotp/hotp.o
currentTime                                       ../../src/main.o
                                                  ../../src/stm/stm32f10x_it.o
                                                  ../../src/ccid/CCIDHID_USB/CCIDHID_usb_prop.o
current_time                                      ../../src/pwd-safe/FlashStorage.o
                                                  ../../src/keyboard/report_protocol.o
                                                  ../../src/keyboard/keyboard.o
                                                  ../../src/hotp/hotp.o
                                                  ../../src/stm/stm32f10x_it.o
                                                  ../../src/ccid/CCIDHID_USB/CCIDHID_usb_prop.o
                                                  ../../src/ccid/CcidLocalAccess.o
                                                  ../../src/main.o
debug_len                                         ../../src/pwd-safe/FlashStorage.o
device_status                                     ../../src/main.o
                                                  ../../src/ccid/CCIDHID_USB/CCIDHID_usb_prop.o
dynamic_truncate                                  ../../src/hotp/hotp.o
endian_swap                                       ../../src/hotp/hotp.o
erase_counter                                     ../../src/hotp/hotp.o
                                                  ../../src/keyboard/report_protocol.o
                                                  ../../src/ccid/CcidLocalAccess.o
fSuspendEnabled                                   ../../src/usb/usb_pwr.o
                                                  ../../src/usb/usb_istr.o
factoryReset                                      ../../src/ccid/CcidLocalAccess.o
                                                  ../../src/keyboard/report_protocol.o
g_pfnVectors                                      ../../src/stm/Libraries/CMSIS/Core/CM3/startup/gcc/startup_stm32f10x_hd.o
getAID                                            ../../src/ccid/CcidLocalAccess.o
                                                  ../../src/keyboard/report_protocol.o
                                                  ../../src/hw_config.o
getByteOfData                                     ../../src/ccid/CcidLocalAccess.o
                                                  ../../src/hw_config.o
getPasswordRetryCount                             ../../src/ccid/CcidLocalAccess.o
                                                  ../../src/keyboard/report_protocol.o
getRandomNumber                                   ../../src/ccid/CcidLocalAccess.o
                                                  ../../src/pwd-safe/password_safe.o
                                                  ../../src/pwd-safe/HandleAesStorageKey.o
getSerialNumber                                   ../../src/ccid/CcidLocalAccess.o
getUserPasswordRetryCount                         ../../src/ccid/CcidLocalAccess.o
                                                  ../../src/keyboard/report_protocol.o
get_code_from_hotp_slot                           ../../src/hotp/hotp.o
                                                  ../../src/keyboard/report_protocol.o
                                                  ../../src/main.o
get_code_from_totp_slot                           ../../src/hotp/hotp.o
                                                  ../../src/keyboard/report_protocol.o
get_counter_value                                 ../../src/hotp/hotp.o
                                                  ../../src/keyboard/report_protocol.o
get_hotp_slot_config                              ../../src/hotp/hotp.o
                                                  ../../src/main.o
get_hotp_value                                    ../../src/hotp/hotp.o
get_time_value                                    ../../src/hotp/hotp.o
                                                  ../../src/keyboard/report_protocol.o
get_totp_slot_config                              ../../src/hotp/hotp.o
getu16                                            ../../src/utils/memory_ops.o
                                                  ../../src/hotp/hotp.o
getu32                                            ../../src/utils/memory_ops.o
                                                  ../../src/keyboard/report_protocol.o
                                                  ../../src/hotp/hotp.o
getu64                                            ../../src/utils/memory_ops.o
                                                  ../../src/keyboard/report_protocol.o
hmac_sha1                                         ../../src/crypt/sha1/hmac-sha1.o
                                                  ../../src/hotp/hotp.o
hmac_sha1_final                                   ../../src/crypt/sha1/hmac-sha1.o
hmac_sha1_init                                    ../../src/crypt/sha1/hmac-sha1.o
hmac_sha1_lastBlock                               ../../src/crypt/sha1/hmac-sha1.o
hmac_sha1_nextBlock                               ../../src/crypt/sha1/hmac-sha1.o
hotp_slot_counters                                ../../src/hotp/hotp.o
                                                  ../../src/keyboard/report_protocol.o
hotp_slot_offsets                                 ../../src/hotp/hotp.o
                                                  ../../src/keyboard/report_protocol.o
                                                  ../../src/ccid/CcidLocalAccess.o
hotp_slots                                        ../../src/hotp/hotp.o
                                                  ../../src/keyboard/report_protocol.o
                                                  ../../src/main.o
increment_counter_page                            ../../src/hotp/hotp.o
initSCHardware                                    ../../src/ccid/smartcard/smartcard.o
isAesSupported                                    ../../src/ccid/CcidLocalAccess.o
                                                  ../../src/keyboard/report_protocol.o
jmpRestartUSB                                     ../../src/main.o
keyboardBuffer                                    ../../src/keyboard/keyboard.o
lastCapsLockChange                                ../../src/ccid/CCIDHID_USB/CCIDHID_usb_prop.o
lastLEDState                                      ../../src/ccid/CCIDHID_USB/CCIDHID_usb_prop.o
lastNumLockChange                                 ../../src/ccid/CCIDHID_USB/CCIDHID_usb_prop.o
lastOATHBlinkTime                                 ../../src/hw_config.o
                                                  ../../src/stm/stm32f10x_it.o
lastScrollLockChange                              ../../src/ccid/CCIDHID_USB/CCIDHID_usb_prop.o
longjmp                                           /usr/lib/gcc/arm-none-eabi/4.8/../../../arm-none-eabi/lib/armv7-m/libc.a(lib_a-setjmp.o)
main                                              ../../src/main.o
                                                  ../../src/stm/Libraries/CMSIS/Core/CM3/startup/gcc/startup_stm32f10x_hd.o
maj                                               ../../src/crypt/sha1/sha1.o
memcmp                                            /usr/lib/gcc/arm-none-eabi/4.8/../../../arm-none-eabi/lib/armv7-m/libc.a(lib_a-memcmp.o)
                                                  ../../src/keyboard/report_protocol.o
memcpy                                            /usr/lib/gcc/arm-none-eabi/4.8/../../../arm-none-eabi/lib/armv7-m/libc.a(lib_a-memcpy.o)
                                                  ../../src/pwd-safe/password_safe.o
                                                  ../../src/pwd-safe/FlashStorage.o
                                                  ../../src/keyboard/report_protocol.o
                                                  ../../src/hotp/hotp.o
                                                  ../../src/crypt/sha1/hmac-sha1.o
                                                  ../../src/crypt/sha1/sha1.o
                                                  ../../src/ccid/CcidLocalAccess.o
memmove                                           /usr/lib/gcc/arm-none-eabi/4.8/../../../arm-none-eabi/lib/armv7-m/libc.a(lib_a-memmove.o)
                                                  ../../src/crypt/sha1/sha1.o
memset                                            /usr/lib/gcc/arm-none-eabi/4.8/../../../arm-none-eabi/lib/armv7-m/libc.a(lib_a-memset.o)
                                                  ../../src/pwd-safe/password_safe.o
                                                  ../../src/pwd-safe/HandleAesStorageKey.o
                                                  ../../src/keyboard/report_protocol.o
                                                  ../../src/crypt/sha1/hmac-sha1.o
                                                  ../../src/crypt/sha1/sha1.o
                                                  ../../src/crypt/aes/aes.o
                                                  ../../src/ccid/CcidLocalAccess.o
message                                           ../../src/ccid/CCIDHID_USB/CCIDHID_usb_prop.o
nFlagSendSMCardInserted                           ../../src/main.o
                                                  ../../src/ccid/CCIDHID_USB/CCIDHID_usb_prop.o
nGlobalStickState                                 ../../src/main.o
                                                  ../../src/stm/Libraries/STM32_USB-FS-Device_Driver/src/usb_init.o
numLockClicked                                    ../../src/ccid/CCIDHID_USB/CCIDHID_usb_prop.o
                                                  ../../src/main.o
pCrdBuffer                                        ../../src/ccid/Crd.o
pEpInt_IN                                         ../../src/usb/usb_istr.o
                                                  ../../src/stm/Libraries/STM32_USB-FS-Device_Driver/src/usb_int.o
pEpInt_OUT                                        ../../src/usb/usb_istr.o
                                                  ../../src/stm/Libraries/STM32_USB-FS-Device_Driver/src/usb_int.o
pInformation                                      ../../src/stm/Libraries/STM32_USB-FS-Device_Driver/src/usb_init.o
                                                  ../../src/stm/Libraries/STM32_USB-FS-Device_Driver/src/usb_core.o
                                                  ../../src/sd-disk/sd-usb/usb_prop.o
                                                  ../../src/ccid/CCIDHID_USB/CCIDHID_usb_prop.o
pProperty                                         ../../src/stm/Libraries/STM32_USB-FS-Device_Driver/src/usb_init.o
                                                  ../../src/stm/Libraries/STM32_USB-FS-Device_Driver/src/usb_core.o
pUser_Standard_Requests                           ../../src/stm/Libraries/STM32_USB-FS-Device_Driver/src/usb_init.o
                                                  ../../src/stm/Libraries/STM32_USB-FS-Device_Driver/src/usb_core.o
page_buffer                                       ../../src/hotp/hotp.o
parity                                            ../../src/crypt/sha1/sha1.o
parse_report                                      ../../src/keyboard/report_protocol.o
                                                  ../../src/main.o
rand                                              /usr/lib/gcc/arm-none-eabi/4.8/../../../arm-none-eabi/lib/armv7-m/libc.a(lib_a-rand.o)
                                                  ../../src/pwd-safe/FlashStorage.o
scrollLockClicked                                 ../../src/ccid/CCIDHID_USB/CCIDHID_usb_prop.o
                                                  ../../src/main.o
sendAESMasterKey                                  ../../src/ccid/CcidLocalAccess.o
                                                  ../../src/pwd-safe/HandleAesStorageKey.o
sendChar                                          ../../src/keyboard/keyboard.o
sendEnter                                         ../../src/keyboard/keyboard.o
                                                  ../../src/pwd-safe/password_safe.o
                                                  ../../src/main.o
sendKeys                                          ../../src/keyboard/keyboard.o
sendNumber                                        ../../src/keyboard/keyboard.o
sendNumberN                                       ../../src/keyboard/keyboard.o
                                                  ../../src/main.o
sendString                                        ../../src/keyboard/keyboard.o
                                                  ../../src/pwd-safe/password_safe.o
                                                  ../../src/main.o
sendTab                                           ../../src/keyboard/keyboard.o
                                                  ../../src/pwd-safe/password_safe.o
set_counter_value                                 ../../src/hotp/hotp.o
                                                  ../../src/keyboard/report_protocol.o
set_time_value                                    ../../src/hotp/hotp.o
                                                  ../../src/keyboard/report_protocol.o
setjmp                                            /usr/lib/gcc/arm-none-eabi/4.8/../../../arm-none-eabi/lib/armv7-m/libc.a(lib_a-setjmp.o)
                                                  ../../src/main.o
sha1                                              ../../src/crypt/sha1/sha1.o
                                                  ../../src/crypt/sha1/hmac-sha1.o
sha1_ctx2hash                                     ../../src/crypt/sha1/sha1.o
                                                  ../../src/crypt/sha1/hmac-sha1.o
sha1_init                                         ../../src/crypt/sha1/sha1.o
                                                  ../../src/crypt/sha1/hmac-sha1.o
sha1_lastBlock                                    ../../src/crypt/sha1/sha1.o
                                                  ../../src/crypt/sha1/hmac-sha1.o
sha1_nextBlock                                    ../../src/crypt/sha1/sha1.o
                                                  ../../src/crypt/sha1/hmac-sha1.o
srand                                             /usr/lib/gcc/arm-none-eabi/4.8/../../../arm-none-eabi/lib/armv7-m/libc.a(lib_a-rand.o)
strcpy                                            /usr/lib/gcc/arm-none-eabi/4.8/../../../arm-none-eabi/lib/armv7-m/libc.a(lib_a-strcpy.o)
                                                  ../../src/ccid/CcidLocalAccess.o
strlen                                            /usr/lib/gcc/arm-none-eabi/4.8/../../../arm-none-eabi/lib/armv7-m/libc.a(lib_a-strlen.o)
                                                  ../../src/pwd-safe/password_safe.o
                                                  ../../src/ccid/CcidLocalAccess.o
temp_password                                     ../../src/keyboard/report_protocol.o
temp_user_password                                ../../src/keyboard/report_protocol.o
test2                                             ../../src/main.o
testScAesKey                                      ../../src/ccid/CcidLocalAccess.o
                                                  ../../src/pwd-safe/HandleAesStorageKey.o
testSendUserPW2                                   ../../src/ccid/CcidLocalAccess.o
                                                  ../../src/pwd-safe/HandleAesStorageKey.o
tmp_password_set                                  ../../src/keyboard/report_protocol.o
tmp_user_password_set                             ../../src/keyboard/report_protocol.o
totp_slot_offsets                                 ../../src/hotp/hotp.o
                                                  ../../src/keyboard/report_protocol.o
                                                  ../../src/ccid/CcidLocalAccess.o
totp_slots                                        ../../src/hotp/hotp.o
                                                  ../../src/keyboard/report_protocol.o
userAuthenticate                                  ../../src/ccid/CcidLocalAccess.o
                                                  ../../src/keyboard/report_protocol.o
wInterrupt_Mask                                   ../../src/stm/Libraries/STM32_USB-FS-Device_Driver/src/usb_init.o
                                                  ../../src/usb/usb_istr.o
                                                  ../../src/usb/usb_pwr.o
                                                  ../../src/sd-disk/sd-usb/usb_prop.o
                                                  ../../src/ccid/CCIDHID_USB/CCIDHID_usb_prop.o
wIstr                                             ../../src/usb/usb_istr.o
                                                  ../../src/stm/Libraries/STM32_USB-FS-Device_Driver/src/usb_int.o
write_data_to_flash                               ../../src/hotp/hotp.o
                                                  ../../src/pwd-safe/password_safe.o
                                                  ../../src/pwd-safe/FlashStorage.o
write_to_slot                                     ../../src/hotp/hotp.o
                                                  ../../src/keyboard/report_protocol.o
                                                  ../../src/ccid/CcidLocalAccess.o
